ARM GAS  C:\DOCUME~1\ADMINI~1\LOCALS~1\Temp\ccCo8Fey.s 			page 1


   1              		.syntax unified
   2              		.cpu cortex-m3
   3              		.fpu softvfp
   4              		.eabi_attribute 20, 1
   5              		.eabi_attribute 21, 1
   6              		.eabi_attribute 23, 3
   7              		.eabi_attribute 24, 1
   8              		.eabi_attribute 25, 1
   9              		.eabi_attribute 26, 1
  10              		.eabi_attribute 30, 6
  11              		.eabi_attribute 18, 4
  12              		.thumb
  13              		.file	"AudioControl.c"
  20 0000 2E030000 		.text
  20      02008800 
  20      00000201 
  20      FB0E0D00 
  20      01010101 
  21              	.Ltext0:
  22              		.cfi_sections	.debug_frame
  23              		.data
  24              		.align	2
  25              		.type	Droop_Filter_Custom_backup, %object
  26              		.size	Droop_Filter_Custom_backup, 4
  27              	Droop_Filter_Custom_backup:
  28 0000 00       		.byte	0
  29 0001 01       		.byte	1
  30 0002 0000     		.space	2
  31              		.comm	USBOutDmaChan,1,1
  32              		.comm	txDmaChan,1,1
  33              		.comm	I2STxDMAChan,1,1
  34              		.comm	USBInDmaChan,1,1
  35              		.comm	rxDmaChan,1,1
  36              		.comm	txTd,8,4
  37              		.comm	rxTd,8,4
  38              		.comm	I2STxTd,1,1
  39              		.comm	I2SRxTd,1,1
  40              		.comm	USBOutTd,2,4
  41              		.comm	USBInTd,2,4
  42              		.global	resetTx
  43              		.bss
  44              		.type	resetTx, %object
  45              		.size	resetTx, 1
  46              	resetTx:
  47 0000 00       		.space	1
  48              		.global	outPlaying
  49              		.type	outPlaying, %object
  50              		.size	outPlaying, 1
  51              	outPlaying:
  52 0001 00       		.space	1
  53              		.global	outLevel
ARM GAS  C:\DOCUME~1\ADMINI~1\LOCALS~1\Temp\ccCo8Fey.s 			page 2


  54              		.align	1
  55              		.type	outLevel, %object
  56              		.size	outLevel, 2
  57              	outLevel:
  58 0002 0000     		.space	2
  59              		.global	outUsbCount
  60              		.align	1
  61              		.type	outUsbCount, %object
  62              		.size	outUsbCount, 2
  63              	outUsbCount:
  64 0004 0000     		.space	2
  65              		.global	outUsbShadow
  66              		.align	1
  67              		.type	outUsbShadow, %object
  68              		.size	outUsbShadow, 2
  69              	outUsbShadow:
  70 0006 0000     		.space	2
  71              		.comm	outBuffer,1152,4
  72              		.global	outBufIndex
  73              		.align	1
  74              		.type	outBufIndex, %object
  75              		.size	outBufIndex, 2
  76              	outBufIndex:
  77 0008 0000     		.space	2
  78              		.global	resetRx
  79              		.type	resetRx, %object
  80              		.size	resetRx, 1
  81              	resetRx:
  82 000a 00       		.space	1
  83              		.global	inPlaying
  84              		.type	inPlaying, %object
  85              		.size	inPlaying, 1
  86              	inPlaying:
  87 000b 00       		.space	1
  88              		.global	inLevel
  89              		.data
  90              		.align	1
  91              		.type	inLevel, %object
  92              		.size	inLevel, 2
  93              	inLevel:
  94 0004 0003     		.short	768
  95              		.global	inUsbCount
  96              		.bss
  97              		.align	1
  98              		.type	inUsbCount, %object
  99              		.size	inUsbCount, 2
 100              	inUsbCount:
 101 000c 0000     		.space	2
 102              		.global	inUsbShadow
 103              		.align	1
 104              		.type	inUsbShadow, %object
 105              		.size	inUsbShadow, 2
 106              	inUsbShadow:
 107 000e 0000     		.space	2
 108              		.global	clearInBuffer
 109              		.type	clearInBuffer, %object
 110              		.size	clearInBuffer, 1
ARM GAS  C:\DOCUME~1\ADMINI~1\LOCALS~1\Temp\ccCo8Fey.s 			page 3


 111              	clearInBuffer:
 112 0010 00       		.space	1
 113              		.comm	inBuffer,768,4
 114              		.global	inBufIndex
 115 0011 00       		.align	1
 116              		.type	inBufIndex, %object
 117              		.size	inBufIndex, 2
 118              	inBufIndex:
 119 0012 0000     		.space	2
 120              		.global	lowPowerIdle
 121              		.data
 122              		.type	lowPowerIdle, %object
 123              		.size	lowPowerIdle, 1
 124              	lowPowerIdle:
 125 0006 01       		.byte	1
 126              		.global	setRate
 127              		.type	setRate, %object
 128              		.size	setRate, 1
 129              	setRate:
 130 0007 FF       		.byte	-1
 131              		.global	rateChangedWhileInactive
 132              		.bss
 133              		.type	rateChangedWhileInactive, %object
 134              		.size	rateChangedWhileInactive, 1
 135              	rateChangedWhileInactive:
 136 0014 00       		.space	1
 137              		.global	clockSwitchTimer
 138              		.type	clockSwitchTimer, %object
 139              		.size	clockSwitchTimer, 1
 140              	clockSwitchTimer:
 141 0015 00       		.space	1
 142              		.global	audioClkConfigured
 143              		.type	audioClkConfigured, %object
 144              		.size	audioClkConfigured, 1
 145              	audioClkConfigured:
 146 0016 00       		.space	1
 147              		.comm	rate,1,1
 148              		.section	.text.ConfigureAudioPath,"ax",%progbits
 149              		.align	2
 150              		.global	ConfigureAudioPath
 151              		.thumb
 152              		.thumb_func
 153              		.type	ConfigureAudioPath, %function
 154              	ConfigureAudioPath:
 155              	.LFB29:
 156              		.file 1 ".\\AudioControl.c"
   1:.\AudioControl.c **** /*******************************************************************************
   2:.\AudioControl.c **** * File Name: AudioControl.c
   3:.\AudioControl.c **** *
   4:.\AudioControl.c **** * Version 1.0
   5:.\AudioControl.c **** *
   6:.\AudioControl.c **** *  Description: This file contains the Audio signal path configuration and 
   7:.\AudioControl.c **** *               processing code
   8:.\AudioControl.c **** *
   9:.\AudioControl.c **** ********************************************************************************
  10:.\AudioControl.c **** * Copyright (2008-2013), Cypress Semiconductor Corporation.
  11:.\AudioControl.c **** ********************************************************************************
ARM GAS  C:\DOCUME~1\ADMINI~1\LOCALS~1\Temp\ccCo8Fey.s 			page 4


  12:.\AudioControl.c **** * This software is owned by Cypress Semiconductor Corporation (Cypress) and is
  13:.\AudioControl.c **** * protected by and subject to worldwide patent protection (United States and
  14:.\AudioControl.c **** * foreign), United States copyright laws and international treaty provisions.
  15:.\AudioControl.c **** * Cypress hereby grants to licensee a personal, non-exclusive, non-transferable
  16:.\AudioControl.c **** * license to copy, use, modify, create derivative works of, and compile the
  17:.\AudioControl.c **** * Cypress Source Code and derivative works for the sole purpose of creating
  18:.\AudioControl.c **** * custom software in support of licensee product to be used only in conjunction
  19:.\AudioControl.c **** * with a Cypress integrated circuit as specified in the applicable agreement.
  20:.\AudioControl.c **** * Any reproduction, modification, translation, compilation, or representation of
  21:.\AudioControl.c **** * this software except as specified above is prohibited without the express
  22:.\AudioControl.c **** * written permission of Cypress.
  23:.\AudioControl.c **** *
  24:.\AudioControl.c **** * Disclaimer: CYPRESS MAKES NO WARRANTY OF ANY KIND, EXPRESS OR IMPLIED, WITH
  25:.\AudioControl.c **** * REGARD TO THIS MATERIAL, INCLUDING, BUT NOT LIMITED TO, THE IMPLIED
  26:.\AudioControl.c **** * WARRANTIES OF MERCHANTABILITY AND FITNESS FOR A PARTICULAR PURPOSE.
  27:.\AudioControl.c **** * Cypress reserves the right to make changes without further notice to the
  28:.\AudioControl.c **** * materials described herein. Cypress does not assume any liability arising out
  29:.\AudioControl.c **** * of the application or use of any product or circuit described herein. Cypress
  30:.\AudioControl.c **** * does not authorize its products for use as critical components in life-support
  31:.\AudioControl.c **** * systems where a malfunction or failure may reasonably be expected to result in
  32:.\AudioControl.c **** * significant injury to the user. The inclusion of Cypress' product in a life-
  33:.\AudioControl.c **** * support systems application implies that the manufacturer assumes all risk of
  34:.\AudioControl.c **** * such use and in doing so indemnifies Cypress against all charges. Use may be
  35:.\AudioControl.c **** * limited by and subject to the applicable Cypress software license agreement.
  36:.\AudioControl.c **** *******************************************************************************/
  37:.\AudioControl.c **** #include <Application.h>
  38:.\AudioControl.c **** #include <AudioControl.h>
  39:.\AudioControl.c **** #include <Codec.h>
  40:.\AudioControl.c **** #include <Configuration.h>
  41:.\AudioControl.c **** #include <Device.h>
  42:.\AudioControl.c **** #include <Interrupts.h>
  43:.\AudioControl.c **** #include <project.h>
  44:.\AudioControl.c **** #include <USBInterface.h>
  45:.\AudioControl.c **** #include <VolumeControl.h>
  46:.\AudioControl.c **** 
  47:.\AudioControl.c **** extern volatile uint8 USBFS_frequencyChanged;   /* USB audio class sampling frequency change flag *
  48:.\AudioControl.c **** extern volatile uint8 USBFS_currentSampleFrequency[][USBFS_SAMPLE_FREQ_LEN]; /* audio SR received f
  49:.\AudioControl.c **** extern volatile uint8 USBFS_interfaceSetting[]; /* current USB active interface settings */
  50:.\AudioControl.c **** extern volatile uint8 USBFS_transferState;      /* USB component state machine value */
  51:.\AudioControl.c **** extern volatile uint8 USBFS_device;             /* currently active USB device descriptor */
  52:.\AudioControl.c **** 
  53:.\AudioControl.c **** extern CYBIT audioClkConfigured;                 /* AudioClkGen configuration flag */
  54:.\AudioControl.c **** extern CYDATA CodecRegister CodecWrite;    		 /* codec register read/write structure */
  55:.\AudioControl.c **** 
  56:.\AudioControl.c **** #if(USBFS_EP_MM == USBFS__EP_DMAAUTO) 
  57:.\AudioControl.c ****   #ifndef ENABLE_DIGITAL_AUDIO_IN_ONLY
  58:.\AudioControl.c ****   extern uint8 outRam[OUT_AUDIOMAXPKT];          /* USB Auto DMA mode audio OUT EP buffer */
  59:.\AudioControl.c ****   #endif
  60:.\AudioControl.c ****   #ifndef ENABLE_DIGITAL_AUDIO_OUT_ONLY
  61:.\AudioControl.c ****   extern uint8 inRam[IN_AUDIOMAXPKT];            /* USB Auto DMA mode audio IN EP buffer */
  62:.\AudioControl.c ****   extern uint16 inCnt;                           /* USB audio IN EP actual count (varies based on a
  63:.\AudioControl.c ****   #endif
  64:.\AudioControl.c **** #endif
  65:.\AudioControl.c **** 
  66:.\AudioControl.c **** /* structure definition for Droop_Filter state retention fix */
  67:.\AudioControl.c **** static Droop_Filter_Custom_BACKUP_STRUCT  Droop_Filter_Custom_backup = 
  68:.\AudioControl.c **** {
ARM GAS  C:\DOCUME~1\ADMINI~1\LOCALS~1\Temp\ccCo8Fey.s 			page 5


  69:.\AudioControl.c ****     Droop_Filter_CUSTOM_DISABLED,
  70:.\AudioControl.c ****     Droop_Filter_CUSTOM_RUN_MASK,
  71:.\AudioControl.c **** };
  72:.\AudioControl.c **** 
  73:.\AudioControl.c **** uint8 USBOutDmaChan;            /* DMA Channel: USB EP memory to OUT circular SRAM  */
  74:.\AudioControl.c **** CYPDATA uint8 txDmaChan;        /* DMA Channel: OUT circular buffer to ByteSwap Tx DMA */
  75:.\AudioControl.c **** CYPDATA uint8 I2STxDMAChan;     /* DMA Channel: ByteSwap Tx to I2S Tx DMA */
  76:.\AudioControl.c **** uint8 USBInDmaChan;             /* USB IN circular SRAM memory to IN EP DMA */
  77:.\AudioControl.c **** CYPDATA uint8 rxDmaChan;        /* DFB  -> IN Circular buffer DMA */
  78:.\AudioControl.c **** 
  79:.\AudioControl.c **** CYPDATA uint8 txTd[NUM_TDS];    /* OUT circular buffer to ByteSwap Tx TDs */
  80:.\AudioControl.c **** CYPDATA uint8 rxTd[NUM_TDS];    /* ByteSwap Rx to circular IN buffer TDs */
  81:.\AudioControl.c **** uint8 I2STxTd;                  /* ByteSwap Tx to I2S Tx TD */
  82:.\AudioControl.c **** uint8 I2SRxTd;                  /* I2S Rx to ByteSwap Rx TD */
  83:.\AudioControl.c **** uint8 USBOutTd[2];              /* USB EP memory to OUT circular SRAM TDs */
  84:.\AudioControl.c **** uint8 USBInTd[2];               /* USB IN circular SRAM memory to IN EP TDs */
  85:.\AudioControl.c **** 
  86:.\AudioControl.c **** CYBIT  resetTx = 0;             /* audio OUT stream reset flag */
  87:.\AudioControl.c **** CYBIT  outPlaying = 0;          /* audio OUT stream (playback) active flag */
  88:.\AudioControl.c **** uint16 outLevel = 0;            /* audio OUT buffer level pointer */
  89:.\AudioControl.c **** uint16 outUsbCount = 0;         /* audio OUT USB interface count */
  90:.\AudioControl.c **** uint16 outUsbShadow = 0;        /* audio OUT temp count */
  91:.\AudioControl.c **** uint8  outBuffer[OUT_BUFSIZE];  /* audio OUT circular buffer */
  92:.\AudioControl.c **** uint16 outBufIndex = 0;         /* audio OUT USB DMA index */
  93:.\AudioControl.c **** 
  94:.\AudioControl.c **** #ifndef ENABLE_DIGITAL_AUDIO_OUT_ONLY
  95:.\AudioControl.c **** CYBIT  resetRx = 0;             /* audio IN stream reset flag */
  96:.\AudioControl.c **** CYBIT  inPlaying = 0;           /* audio IN stream (recording) active flag */
  97:.\AudioControl.c **** uint16 inLevel = IN_BUFSIZE;    /* audio IN buffer level pointer */
  98:.\AudioControl.c **** uint16 inUsbCount = 0;          /* audio IN USB interface count */
  99:.\AudioControl.c **** uint16 inUsbShadow = 0;         /* audio IN temp count */
 100:.\AudioControl.c **** CYBIT  clearInBuffer = 0;       /* audio IN buffer reset flag */
 101:.\AudioControl.c **** uint8 inBuffer[IN_BUFSIZE];     /* audio IN circular buffer */
 102:.\AudioControl.c **** uint16 inBufIndex = 0;          /* audio IN USB DMA index */
 103:.\AudioControl.c **** #endif
 104:.\AudioControl.c **** 
 105:.\AudioControl.c **** 
 106:.\AudioControl.c **** CYBIT lowPowerIdle = TRUE;          /* audio low power mode flag (low power = PLL etc. shut down) *
 107:.\AudioControl.c **** 
 108:.\AudioControl.c **** CYPDATA uint8 setRate = FREQUENCY_NOT_SET; /* Audio sample rate configured or not in AudioClkGen co
 109:.\AudioControl.c **** CYBIT rateChangedWhileInactive = FALSE;    /* Sample rate changed while the system was in low power
 110:.\AudioControl.c **** CYPDATA uint8 clockSwitchTimer = 0;        /* Timer for audio clock shutdown when the streaming int
 111:.\AudioControl.c **** CYBIT audioClkConfigured = FALSE;          /* AudioClkGen is configured with one or the other sampl
 112:.\AudioControl.c **** 
 113:.\AudioControl.c **** CYPDATA uint8 rate;             /* macro which holds the sample rate issues by the USB host */
 114:.\AudioControl.c **** 
 115:.\AudioControl.c **** #ifdef DISABLE_DFB
 116:.\AudioControl.c **** uint8 leftCICOutput[CIC_OUT_BUFSIZE];
 117:.\AudioControl.c **** uint8 rightCICOutput[CIC_OUT_BUFSIZE];
 118:.\AudioControl.c **** #endif
 119:.\AudioControl.c **** 
 120:.\AudioControl.c **** /*******************************************************************************
 121:.\AudioControl.c **** * Function Name: ConfigureAudioPath
 122:.\AudioControl.c **** ********************************************************************************
 123:.\AudioControl.c **** * Summary:
 124:.\AudioControl.c **** *       This function sets up the DMA and starts USB, I2S and interrupts
 125:.\AudioControl.c **** *       to get the PSoC 5 device configured for audio streaming mode
ARM GAS  C:\DOCUME~1\ADMINI~1\LOCALS~1\Temp\ccCo8Fey.s 			page 6


 126:.\AudioControl.c **** *
 127:.\AudioControl.c **** * Parameters:
 128:.\AudioControl.c **** *  void
 129:.\AudioControl.c **** *
 130:.\AudioControl.c **** * Return:
 131:.\AudioControl.c **** *  void
 132:.\AudioControl.c **** *
 133:.\AudioControl.c **** *******************************************************************************/
 134:.\AudioControl.c **** void ConfigureAudioPath(void)
 135:.\AudioControl.c **** {
 157              		.loc 1 135 0
 158              		.cfi_startproc
 159              		@ args = 0, pretend = 0, frame = 8
 160              		@ frame_needed = 1, uses_anonymous_args = 0
 161 0000 90B5     		push	{r4, r7, lr}
 162              	.LCFI0:
 163              		.cfi_def_cfa_offset 12
 164 0002 83B0     		sub	sp, sp, #12
 165              	.LCFI1:
 166              		.cfi_def_cfa_offset 24
 167 0004 00AF     		add	r7, sp, #0
 168              		.cfi_offset 14, -4
 169              		.cfi_offset 7, -8
 170              		.cfi_offset 4, -12
 171              	.LCFI2:
 172              		.cfi_def_cfa_register 7
 136:.\AudioControl.c ****     uint8 index;
 137:.\AudioControl.c ****     
 138:.\AudioControl.c **** //	CyPins_SetPin(PSOC_CODEC_PWR_0); /* Enable this code only if PSOC_CODEC_PWR pin is enabled in th
 139:.\AudioControl.c **** 	
 140:.\AudioControl.c **** 	#ifdef CODEC_I2C_SUPPORTED
 141:.\AudioControl.c **** 	I2C_Master_Start();  		/* Start I2C for codec configuration */
 142:.\AudioControl.c ****     #endif
 143:.\AudioControl.c **** 	
 144:.\AudioControl.c **** 	CyMasterClk_SetSource(CY_MASTER_SOURCE_IMO); /* Set the system clock to IMO */
 173              		.loc 1 144 0
 174 0006 4FF00000 		mov	r0, #0
 175 000a FFF7FEFF 		bl	CyMasterClk_SetSource
 145:.\AudioControl.c **** 	CyDelayFreq(DELAY_FREQ_PARAM_VALUE_IMO);
 176              		.loc 1 145 0
 177 000e 43F20060 		movw	r0, #:lower16:24000000
 178 0012 C0F26E10 		movt	r0, #:upper16:24000000
 179 0016 FFF7FEFF 		bl	CyDelayFreq
 146:.\AudioControl.c ****     CyDelayUs(100);    
 180              		.loc 1 146 0
 181 001a 4FF06400 		mov	r0, #100
 182 001e FFF7FEFF 		bl	CyDelayUs
 147:.\AudioControl.c ****     CyPLL_OUT_Stop();
 183              		.loc 1 147 0
 184 0022 FFF7FEFF 		bl	CyPLL_OUT_Stop
 148:.\AudioControl.c ****         
 149:.\AudioControl.c ****     CY_SET_REG8((void CYXDATA *)(CYDEV_FASTCLK_PLL_CFG1), 0); /* Change the settings for the PLL fi
 185              		.loc 1 149 0
 186 0026 44F22123 		movw	r3, #:lower16:1073758753
 187 002a C4F20003 		movt	r3, #:upper16:1073758753
 188 002e 4FF00002 		mov	r2, #0
 189 0032 1A70     		strb	r2, [r3, #0]
ARM GAS  C:\DOCUME~1\ADMINI~1\LOCALS~1\Temp\ccCo8Fey.s 			page 7


 150:.\AudioControl.c **** 
 151:.\AudioControl.c ****     AudioClkGen_Start();
 190              		.loc 1 151 0
 191 0034 FFF7FEFF 		bl	AudioClkGen_Start
 152:.\AudioControl.c ****     rate = RATE_44KHZ;
 192              		.loc 1 152 0
 193 0038 40F20003 		movw	r3, #:lower16:rate
 194 003c C0F20003 		movt	r3, #:upper16:rate
 195 0040 4FF00102 		mov	r2, #1
 196 0044 1A70     		strb	r2, [r3, #0]
 153:.\AudioControl.c ****     CyPLL_OUT_SetSource(CY_PLL_SOURCE_DSI);
 197              		.loc 1 153 0
 198 0046 4FF00200 		mov	r0, #2
 199 004a FFF7FEFF 		bl	CyPLL_OUT_SetSource
 154:.\AudioControl.c ****     
 155:.\AudioControl.c **** 	/* Starting the MCLK always as required by some codecs */
 156:.\AudioControl.c **** 	#ifdef MCLK_ALWAYS_ENABLED
 157:.\AudioControl.c **** 	CyPLL_OUT_Start(0);
 158:.\AudioControl.c **** 	AudioClkGen_SetAudioRate(RATE_48KHZ);
 159:.\AudioControl.c **** 	#ifdef I2S_PIN_DRIVE_MODE_CHANGE_IN_IDLE_MODE
 160:.\AudioControl.c **** 	    PSOC_I2S_MCLK_SetDriveMode(PSOC_I2S_MCLK_DM_STRONG);		
 161:.\AudioControl.c ****     #endif
 162:.\AudioControl.c **** 	#endif 
 163:.\AudioControl.c **** 
 164:.\AudioControl.c ****     /* Audio sample SRAM to ByteSwap and vice versa DMA configuration*/
 165:.\AudioControl.c ****     /*______________________SRAM to ByteSwap (Out path) & DFB to SRAM (In path) DMA Config Start___
 166:.\AudioControl.c ****     
 167:.\AudioControl.c ****     #ifndef ENABLE_DIGITAL_AUDIO_IN_ONLY
 168:.\AudioControl.c ****     /* Set up the TX DMA, 1 byte bursts, each burst requires a request, upper addr of 0 */
 169:.\AudioControl.c ****     txDmaChan = TxDMA_DmaInitialize(DMA_BURSTCOUNT, RQST_PER_BURST, HI16(CYREG_SRAM_DATA_MBASE), HI
 200              		.loc 1 169 0
 201 004e 4FF00100 		mov	r0, #1
 202 0052 4FF00101 		mov	r1, #1
 203 0056 4FF40052 		mov	r2, #8192
 204 005a 4FF48043 		mov	r3, #16384
 205 005e FFF7FEFF 		bl	TxDMA_DmaInitialize
 206 0062 0346     		mov	r3, r0
 207 0064 1A46     		mov	r2, r3
 208 0066 40F20003 		movw	r3, #:lower16:txDmaChan
 209 006a C0F20003 		movt	r3, #:upper16:txDmaChan
 210 006e 1A70     		strb	r2, [r3, #0]
 170:.\AudioControl.c ****     #endif
 171:.\AudioControl.c ****     
 172:.\AudioControl.c ****     #ifndef ENABLE_DIGITAL_AUDIO_OUT_ONLY
 173:.\AudioControl.c ****     /* Rx DMA Config, 1 byte bursts, each burst requires a request, upper addr of 0 */
 174:.\AudioControl.c ****     rxDmaChan = RxDMA_DmaInitialize(IN_DMA_BURSTCOUNT, RQST_PER_BURST, HI16(CYDEV_PERIPH_BASE), HI1
 211              		.loc 1 174 0
 212 0070 4FF00200 		mov	r0, #2
 213 0074 4FF00101 		mov	r1, #1
 214 0078 4FF48042 		mov	r2, #16384
 215 007c 4FF40053 		mov	r3, #8192
 216 0080 FFF7FEFF 		bl	RxDMA_DmaInitialize
 217 0084 0346     		mov	r3, r0
 218 0086 1A46     		mov	r2, r3
 219 0088 40F20003 		movw	r3, #:lower16:rxDmaChan
 220 008c C0F20003 		movt	r3, #:upper16:rxDmaChan
 221 0090 1A70     		strb	r2, [r3, #0]
ARM GAS  C:\DOCUME~1\ADMINI~1\LOCALS~1\Temp\ccCo8Fey.s 			page 8


 175:.\AudioControl.c ****     #endif
 176:.\AudioControl.c ****     
 177:.\AudioControl.c ****     for (index=0; index < NUM_TDS; index++)
 222              		.loc 1 177 0
 223 0092 4FF00003 		mov	r3, #0
 224 0096 FB71     		strb	r3, [r7, #7]
 225 0098 17E0     		b	.L2
 226              	.L3:
 178:.\AudioControl.c ****     {
 179:.\AudioControl.c ****         /* Request for a set of TDs from the pool */
 180:.\AudioControl.c ****         #ifndef ENABLE_DIGITAL_AUDIO_IN_ONLY
 181:.\AudioControl.c ****         txTd[index] = CyDmaTdAllocate();
 227              		.loc 1 181 0
 228 009a FC79     		ldrb	r4, [r7, #7]	@ zero_extendqisi2
 229 009c FFF7FEFF 		bl	CyDmaTdAllocate
 230 00a0 0346     		mov	r3, r0
 231 00a2 1A46     		mov	r2, r3
 232 00a4 40F20003 		movw	r3, #:lower16:txTd
 233 00a8 C0F20003 		movt	r3, #:upper16:txTd
 234 00ac 1A55     		strb	r2, [r3, r4]
 182:.\AudioControl.c ****         #endif
 183:.\AudioControl.c ****         
 184:.\AudioControl.c ****         #ifndef ENABLE_DIGITAL_AUDIO_OUT_ONLY
 185:.\AudioControl.c ****         rxTd[index] = CyDmaTdAllocate();
 235              		.loc 1 185 0
 236 00ae FC79     		ldrb	r4, [r7, #7]	@ zero_extendqisi2
 237 00b0 FFF7FEFF 		bl	CyDmaTdAllocate
 238 00b4 0346     		mov	r3, r0
 239 00b6 1A46     		mov	r2, r3
 240 00b8 40F20003 		movw	r3, #:lower16:rxTd
 241 00bc C0F20003 		movt	r3, #:upper16:rxTd
 242 00c0 1A55     		strb	r2, [r3, r4]
 243              		.loc 1 177 0
 244 00c2 FB79     		ldrb	r3, [r7, #7]
 245 00c4 03F10103 		add	r3, r3, #1
 246 00c8 FB71     		strb	r3, [r7, #7]
 247              	.L2:
 248 00ca FB79     		ldrb	r3, [r7, #7]	@ zero_extendqisi2
 249 00cc 072B     		cmp	r3, #7
 250 00ce E4D9     		bls	.L3
 186:.\AudioControl.c ****         #endif
 187:.\AudioControl.c ****     }    
 188:.\AudioControl.c ****         
 189:.\AudioControl.c ****     for (index=0; index < NUM_TDS; index++)
 251              		.loc 1 189 0
 252 00d0 4FF00003 		mov	r3, #0
 253 00d4 FB71     		strb	r3, [r7, #7]
 254 00d6 79E0     		b	.L4
 255              	.L5:
 190:.\AudioControl.c ****     {
 191:.\AudioControl.c ****         #ifndef ENABLE_DIGITAL_AUDIO_IN_ONLY
 192:.\AudioControl.c ****         /* Configure this Td chain as follows:
 193:.\AudioControl.c ****          * Loop through all of the TDs , Increment the source address, but not the destination addr
 194:.\AudioControl.c ****         CyDmaTdSetConfiguration(txTd[index], OUT_TRANS_SIZE, txTd[(index+1)%NUM_TDS], TD_INC_SRC_AD
 256              		.loc 1 194 0
 257 00d8 FA79     		ldrb	r2, [r7, #7]	@ zero_extendqisi2
 258 00da 40F20003 		movw	r3, #:lower16:txTd
ARM GAS  C:\DOCUME~1\ADMINI~1\LOCALS~1\Temp\ccCo8Fey.s 			page 9


 259 00de C0F20003 		movt	r3, #:upper16:txTd
 260 00e2 995C     		ldrb	r1, [r3, r2]	@ zero_extendqisi2
 261 00e4 FB79     		ldrb	r3, [r7, #7]	@ zero_extendqisi2
 262 00e6 03F10102 		add	r2, r3, #1
 263 00ea 4FEAE273 		asr	r3, r2, #31
 264 00ee 4FEA5373 		lsr	r3, r3, #29
 265 00f2 1A44     		add	r2, r2, r3
 266 00f4 02F00702 		and	r2, r2, #7
 267 00f8 C3EB0203 		rsb	r3, r3, r2
 268 00fc 1A46     		mov	r2, r3
 269 00fe 40F20003 		movw	r3, #:lower16:txTd
 270 0102 C0F20003 		movt	r3, #:upper16:txTd
 271 0106 9B5C     		ldrb	r3, [r3, r2]	@ zero_extendqisi2
 272 0108 0846     		mov	r0, r1
 273 010a 4FF09001 		mov	r1, #144
 274 010e 1A46     		mov	r2, r3
 275 0110 4FF00503 		mov	r3, #5
 276 0114 FFF7FEFF 		bl	CyDmaTdSetConfiguration
 195:.\AudioControl.c ****         #endif
 196:.\AudioControl.c ****         
 197:.\AudioControl.c ****         #ifndef ENABLE_DIGITAL_AUDIO_OUT_ONLY
 198:.\AudioControl.c ****         /* Configure this Td chain as follows:
 199:.\AudioControl.c ****          *  Loop through all of the TDs, Increment the destination address, but not the source addr
 200:.\AudioControl.c ****         CyDmaTdSetConfiguration(rxTd[index], IN_TRANS_SIZE, rxTd[(index+1)%NUM_TDS], TD_INC_DST_ADR
 277              		.loc 1 200 0
 278 0118 FA79     		ldrb	r2, [r7, #7]	@ zero_extendqisi2
 279 011a 40F20003 		movw	r3, #:lower16:rxTd
 280 011e C0F20003 		movt	r3, #:upper16:rxTd
 281 0122 995C     		ldrb	r1, [r3, r2]	@ zero_extendqisi2
 282 0124 FB79     		ldrb	r3, [r7, #7]	@ zero_extendqisi2
 283 0126 03F10102 		add	r2, r3, #1
 284 012a 4FEAE273 		asr	r3, r2, #31
 285 012e 4FEA5373 		lsr	r3, r3, #29
 286 0132 1A44     		add	r2, r2, r3
 287 0134 02F00702 		and	r2, r2, #7
 288 0138 C3EB0203 		rsb	r3, r3, r2
 289 013c 1A46     		mov	r2, r3
 290 013e 40F20003 		movw	r3, #:lower16:rxTd
 291 0142 C0F20003 		movt	r3, #:upper16:rxTd
 292 0146 9B5C     		ldrb	r3, [r3, r2]	@ zero_extendqisi2
 293 0148 0846     		mov	r0, r1
 294 014a 4FF06001 		mov	r1, #96
 295 014e 1A46     		mov	r2, r3
 296 0150 4FF00603 		mov	r3, #6
 297 0154 FFF7FEFF 		bl	CyDmaTdSetConfiguration
 201:.\AudioControl.c ****         #endif
 202:.\AudioControl.c ****         
 203:.\AudioControl.c ****         #ifndef ENABLE_DIGITAL_AUDIO_IN_ONLY
 204:.\AudioControl.c ****         /* From the Audio Out SRAM buffer to ByteSwap component input FIFO */
 205:.\AudioControl.c ****         CyDmaTdSetAddress(txTd[index], LO16((uint32)outBuffer+(OUT_TRANS_SIZE*index)), LO16((uint32
 298              		.loc 1 205 0
 299 0158 FA79     		ldrb	r2, [r7, #7]	@ zero_extendqisi2
 300 015a 40F20003 		movw	r3, #:lower16:txTd
 301 015e C0F20003 		movt	r3, #:upper16:txTd
 302 0162 9A5C     		ldrb	r2, [r3, r2]	@ zero_extendqisi2
 303 0164 FB79     		ldrb	r3, [r7, #7]	@ zero_extendqisi2
 304 0166 1946     		mov	r1, r3	@ movhi
ARM GAS  C:\DOCUME~1\ADMINI~1\LOCALS~1\Temp\ccCo8Fey.s 			page 10


 305 0168 4FEAC101 		lsl	r1, r1, #3
 306 016c 0B44     		add	r3, r1, r3
 307 016e 4FEA0313 		lsl	r3, r3, #4
 308 0172 99B2     		uxth	r1, r3
 309 0174 40F20003 		movw	r3, #:lower16:outBuffer
 310 0178 C0F20003 		movt	r3, #:upper16:outBuffer
 311 017c 9BB2     		uxth	r3, r3
 312 017e 0B44     		add	r3, r1, r3
 313 0180 9BB2     		uxth	r3, r3
 314 0182 1046     		mov	r0, r2
 315 0184 1946     		mov	r1, r3
 316 0186 46F24142 		movw	r2, #25665
 317 018a FFF7FEFF 		bl	CyDmaTdSetAddress
 206:.\AudioControl.c ****         #endif
 207:.\AudioControl.c ****         
 208:.\AudioControl.c ****         #ifndef ENABLE_DIGITAL_AUDIO_OUT_ONLY
 209:.\AudioControl.c ****         /* From the Droop Filter DFB component output holding register to Audio In SRAM buffer */
 210:.\AudioControl.c ****         CyDmaTdSetAddress(rxTd[index], LO16((uint32)FILTER_SOURCE_REG_POINTER), LO16((uint32)inBuff
 318              		.loc 1 210 0
 319 018e FA79     		ldrb	r2, [r7, #7]	@ zero_extendqisi2
 320 0190 40F20003 		movw	r3, #:lower16:rxTd
 321 0194 C0F20003 		movt	r3, #:upper16:rxTd
 322 0198 9A5C     		ldrb	r2, [r3, r2]	@ zero_extendqisi2
 323 019a FB79     		ldrb	r3, [r7, #7]	@ zero_extendqisi2
 324 019c 1946     		mov	r1, r3	@ movhi
 325 019e 4FEA4101 		lsl	r1, r1, #1
 326 01a2 0B44     		add	r3, r1, r3
 327 01a4 4FEA4313 		lsl	r3, r3, #5
 328 01a8 99B2     		uxth	r1, r3
 329 01aa 40F20003 		movw	r3, #:lower16:inBuffer
 330 01ae C0F20003 		movt	r3, #:upper16:inBuffer
 331 01b2 9BB2     		uxth	r3, r3
 332 01b4 0B44     		add	r3, r1, r3
 333 01b6 9BB2     		uxth	r3, r3
 334 01b8 1046     		mov	r0, r2
 335 01ba 4CF2A871 		movw	r1, #51112
 336 01be 1A46     		mov	r2, r3
 337 01c0 FFF7FEFF 		bl	CyDmaTdSetAddress
 338              		.loc 1 189 0
 339 01c4 FB79     		ldrb	r3, [r7, #7]
 340 01c6 03F10103 		add	r3, r3, #1
 341 01ca FB71     		strb	r3, [r7, #7]
 342              	.L4:
 343 01cc FB79     		ldrb	r3, [r7, #7]	@ zero_extendqisi2
 344 01ce 072B     		cmp	r3, #7
 345 01d0 82D9     		bls	.L5
 211:.\AudioControl.c ****         #endif
 212:.\AudioControl.c ****     }
 213:.\AudioControl.c ****     /* __________________________________SRAM to ByteSwap DMA Config End___________________________
 214:.\AudioControl.c ****     
 215:.\AudioControl.c ****     
 216:.\AudioControl.c ****     
 217:.\AudioControl.c ****     #ifndef ENABLE_DIGITAL_AUDIO_IN_ONLY
 218:.\AudioControl.c ****     /* __________________________________ByteSwap to I2S DMA Config Start__________________________
 219:.\AudioControl.c ****     I2STxDMAChan = I2S_Tx_DMA_DmaInitialize(DMA_BURSTCOUNT, RQST_PER_BURST, HI16(CYDEV_PERIPH_BASE)
 346              		.loc 1 219 0
 347 01d2 4FF00100 		mov	r0, #1
ARM GAS  C:\DOCUME~1\ADMINI~1\LOCALS~1\Temp\ccCo8Fey.s 			page 11


 348 01d6 4FF00101 		mov	r1, #1
 349 01da 4FF48042 		mov	r2, #16384
 350 01de 4FF48043 		mov	r3, #16384
 351 01e2 FFF7FEFF 		bl	I2S_Tx_DMA_DmaInitialize
 352 01e6 0346     		mov	r3, r0
 353 01e8 1A46     		mov	r2, r3
 354 01ea 40F20003 		movw	r3, #:lower16:I2STxDMAChan
 355 01ee C0F20003 		movt	r3, #:upper16:I2STxDMAChan
 356 01f2 1A70     		strb	r2, [r3, #0]
 220:.\AudioControl.c ****     I2STxTd = CyDmaTdAllocate();
 357              		.loc 1 220 0
 358 01f4 FFF7FEFF 		bl	CyDmaTdAllocate
 359 01f8 0346     		mov	r3, r0
 360 01fa 1A46     		mov	r2, r3
 361 01fc 40F20003 		movw	r3, #:lower16:I2STxTd
 362 0200 C0F20003 		movt	r3, #:upper16:I2STxTd
 363 0204 1A70     		strb	r2, [r3, #0]
 221:.\AudioControl.c ****     CyDmaTdSetConfiguration(I2STxTd, I2SDMA_TRANS_SIZE, I2STxTd, I2SDMA_CONFIG);
 364              		.loc 1 221 0
 365 0206 40F20003 		movw	r3, #:lower16:I2STxTd
 366 020a C0F20003 		movt	r3, #:upper16:I2STxTd
 367 020e 1A78     		ldrb	r2, [r3, #0]	@ zero_extendqisi2
 368 0210 40F20003 		movw	r3, #:lower16:I2STxTd
 369 0214 C0F20003 		movt	r3, #:upper16:I2STxTd
 370 0218 1B78     		ldrb	r3, [r3, #0]	@ zero_extendqisi2
 371 021a 1046     		mov	r0, r2
 372 021c 4FF00101 		mov	r1, #1
 373 0220 1A46     		mov	r2, r3
 374 0222 4FF00003 		mov	r3, #0
 375 0226 FFF7FEFF 		bl	CyDmaTdSetConfiguration
 222:.\AudioControl.c ****     CyDmaTdSetAddress(I2STxTd, LO16((uint32)ByteSwap_Tx_dp_ByteSwap_u0__F1_REG), LO16((uint32)I2S_T
 376              		.loc 1 222 0
 377 022a 40F20003 		movw	r3, #:lower16:I2STxTd
 378 022e C0F20003 		movt	r3, #:upper16:I2STxTd
 379 0232 1B78     		ldrb	r3, [r3, #0]	@ zero_extendqisi2
 380 0234 1846     		mov	r0, r3
 381 0236 46F25141 		movw	r1, #25681
 382 023a 46F24752 		movw	r2, #25927
 383 023e FFF7FEFF 		bl	CyDmaTdSetAddress
 223:.\AudioControl.c ****     CyDmaChSetInitialTd(I2STxDMAChan, I2STxTd);
 384              		.loc 1 223 0
 385 0242 40F20003 		movw	r3, #:lower16:I2STxDMAChan
 386 0246 C0F20003 		movt	r3, #:upper16:I2STxDMAChan
 387 024a 1A78     		ldrb	r2, [r3, #0]	@ zero_extendqisi2
 388 024c 40F20003 		movw	r3, #:lower16:I2STxTd
 389 0250 C0F20003 		movt	r3, #:upper16:I2STxTd
 390 0254 1B78     		ldrb	r3, [r3, #0]	@ zero_extendqisi2
 391 0256 1046     		mov	r0, r2
 392 0258 1946     		mov	r1, r3
 393 025a FFF7FEFF 		bl	CyDmaChSetInitialTd
 224:.\AudioControl.c ****     /* __________________________________ByteSwap to I2S DMA Config End____________________________
 225:.\AudioControl.c ****     #endif
 226:.\AudioControl.c ****     
 227:.\AudioControl.c ****     #ifndef ENABLE_DIGITAL_AUDIO_IN_ONLY
 228:.\AudioControl.c ****     /* USB Out DMA Config:  Entire chain is sent based on a single request from the CPU. Td's are c
 229:.\AudioControl.c ****     USBOutDmaChan = USBOutDMA_DmaInitialize(DMA_BURSTCOUNT, USBDMA_RQST_PER_BURST, HI16(CYREG_SRAM_
 394              		.loc 1 229 0
ARM GAS  C:\DOCUME~1\ADMINI~1\LOCALS~1\Temp\ccCo8Fey.s 			page 12


 395 025e 4FF00100 		mov	r0, #1
 396 0262 4FF00001 		mov	r1, #0
 397 0266 4FF40052 		mov	r2, #8192
 398 026a 4FF40053 		mov	r3, #8192
 399 026e FFF7FEFF 		bl	USBOutDMA_DmaInitialize
 400 0272 0346     		mov	r3, r0
 401 0274 1A46     		mov	r2, r3
 402 0276 40F20003 		movw	r3, #:lower16:USBOutDmaChan
 403 027a C0F20003 		movt	r3, #:upper16:USBOutDmaChan
 404 027e 1A70     		strb	r2, [r3, #0]
 230:.\AudioControl.c ****     USBOutTd[0] = CyDmaTdAllocate();
 405              		.loc 1 230 0
 406 0280 FFF7FEFF 		bl	CyDmaTdAllocate
 407 0284 0346     		mov	r3, r0
 408 0286 1A46     		mov	r2, r3
 409 0288 40F20003 		movw	r3, #:lower16:USBOutTd
 410 028c C0F20003 		movt	r3, #:upper16:USBOutTd
 411 0290 1A70     		strb	r2, [r3, #0]
 231:.\AudioControl.c ****     USBOutTd[1] = CyDmaTdAllocate();
 412              		.loc 1 231 0
 413 0292 FFF7FEFF 		bl	CyDmaTdAllocate
 414 0296 0346     		mov	r3, r0
 415 0298 1A46     		mov	r2, r3
 416 029a 40F20003 		movw	r3, #:lower16:USBOutTd
 417 029e C0F20003 		movt	r3, #:upper16:USBOutTd
 418 02a2 5A70     		strb	r2, [r3, #1]
 232:.\AudioControl.c ****     #endif
 233:.\AudioControl.c ****     
 234:.\AudioControl.c ****     #ifndef ENABLE_DIGITAL_AUDIO_OUT_ONLY
 235:.\AudioControl.c ****     /* USB In DMA Config: Entire chain is sent based on a single request from the CPU. Td's are con
 236:.\AudioControl.c ****     USBInDmaChan = USBInDMA_DmaInitialize(DMA_BURSTCOUNT, USBDMA_RQST_PER_BURST, HI16(CYREG_SRAM_DA
 419              		.loc 1 236 0
 420 02a4 4FF00100 		mov	r0, #1
 421 02a8 4FF00001 		mov	r1, #0
 422 02ac 4FF40052 		mov	r2, #8192
 423 02b0 4FF40053 		mov	r3, #8192
 424 02b4 FFF7FEFF 		bl	USBInDMA_DmaInitialize
 425 02b8 0346     		mov	r3, r0
 426 02ba 1A46     		mov	r2, r3
 427 02bc 40F20003 		movw	r3, #:lower16:USBInDmaChan
 428 02c0 C0F20003 		movt	r3, #:upper16:USBInDmaChan
 429 02c4 1A70     		strb	r2, [r3, #0]
 237:.\AudioControl.c ****     USBInTd[0] = CyDmaTdAllocate();
 430              		.loc 1 237 0
 431 02c6 FFF7FEFF 		bl	CyDmaTdAllocate
 432 02ca 0346     		mov	r3, r0
 433 02cc 1A46     		mov	r2, r3
 434 02ce 40F20003 		movw	r3, #:lower16:USBInTd
 435 02d2 C0F20003 		movt	r3, #:upper16:USBInTd
 436 02d6 1A70     		strb	r2, [r3, #0]
 238:.\AudioControl.c ****     USBInTd[1] = CyDmaTdAllocate();
 437              		.loc 1 238 0
 438 02d8 FFF7FEFF 		bl	CyDmaTdAllocate
 439 02dc 0346     		mov	r3, r0
 440 02de 1A46     		mov	r2, r3
 441 02e0 40F20003 		movw	r3, #:lower16:USBInTd
 442 02e4 C0F20003 		movt	r3, #:upper16:USBInTd
ARM GAS  C:\DOCUME~1\ADMINI~1\LOCALS~1\Temp\ccCo8Fey.s 			page 13


 443 02e8 5A70     		strb	r2, [r3, #1]
 239:.\AudioControl.c ****     #endif
 240:.\AudioControl.c ****     
 241:.\AudioControl.c ****     #ifndef ENABLE_DIGITAL_AUDIO_IN_ONLY
 242:.\AudioControl.c ****     isr_TxDMADone_StartEx(TxDMADone_Interrupt);
 444              		.loc 1 242 0
 445 02ea 40F20000 		movw	r0, #:lower16:TxDMADone_Interrupt
 446 02ee C0F20000 		movt	r0, #:upper16:TxDMADone_Interrupt
 447 02f2 FFF7FEFF 		bl	isr_TxDMADone_StartEx
 243:.\AudioControl.c ****     #endif
 244:.\AudioControl.c ****     
 245:.\AudioControl.c ****     #ifndef ENABLE_DIGITAL_AUDIO_OUT_ONLY
 246:.\AudioControl.c ****     isr_RxDMADone_StartEx(RxDMADone_Interrupt);
 448              		.loc 1 246 0
 449 02f6 40F20000 		movw	r0, #:lower16:RxDMADone_Interrupt
 450 02fa C0F20000 		movt	r0, #:upper16:RxDMADone_Interrupt
 451 02fe FFF7FEFF 		bl	isr_RxDMADone_StartEx
 247:.\AudioControl.c ****     isr_InDMADone_StartEx(InDMADone_Interrupt);
 452              		.loc 1 247 0
 453 0302 40F20000 		movw	r0, #:lower16:InDMADone_Interrupt
 454 0306 C0F20000 		movt	r0, #:upper16:InDMADone_Interrupt
 455 030a FFF7FEFF 		bl	isr_InDMADone_StartEx
 248:.\AudioControl.c ****     #endif
 249:.\AudioControl.c ****     
 250:.\AudioControl.c ****     #ifndef ENABLE_DIGITAL_AUDIO_IN_ONLY
 251:.\AudioControl.c ****     /* set TX FIFO trigger to 2 bytes (half-empty) to increase timing margin */
 252:.\AudioControl.c ****     I2S_TX_AUX_CONTROL_REG = I2S_TX_AUX_CONTROL_REG | FIFO_HALF_EMPTY_MASK;
 456              		.loc 1 252 0
 457 030e 46F29753 		movw	r3, #:lower16:1073767831
 458 0312 C4F20003 		movt	r3, #:upper16:1073767831
 459 0316 46F29752 		movw	r2, #:lower16:1073767831
 460 031a C4F20002 		movt	r2, #:upper16:1073767831
 461 031e 1278     		ldrb	r2, [r2, #0]
 462 0320 D2B2     		uxtb	r2, r2
 463 0322 42F00C02 		orr	r2, r2, #12
 464 0326 D2B2     		uxtb	r2, r2
 465 0328 1A70     		strb	r2, [r3, #0]
 253:.\AudioControl.c ****     #endif
 254:.\AudioControl.c ****     
 255:.\AudioControl.c ****     #ifdef ENABLE_VOLUME_CONTROL
 256:.\AudioControl.c ****     InitUSBVolumeLevel();
 257:.\AudioControl.c ****     #endif
 258:.\AudioControl.c ****     
 259:.\AudioControl.c ****     #ifdef ENABLE_PDM 
 260:.\AudioControl.c ****         Clock_CIC_Stop();
 466              		.loc 1 260 0
 467 032a FFF7FEFF 		bl	Clock_CIC_Stop
 261:.\AudioControl.c ****         PDM_CIC_Start();
 468              		.loc 1 261 0
 469 032e FFF7FEFF 		bl	PDM_CIC_Start
 262:.\AudioControl.c ****         CICOutDMA_ConfigAndStart();
 470              		.loc 1 262 0
 471 0332 FFF7FEFF 		bl	CICOutDMA_ConfigAndStart
 263:.\AudioControl.c ****         isr_CICOverflow_StartEx(cicOverflow_Interrupt);
 472              		.loc 1 263 0
 473 0336 40F20000 		movw	r0, #:lower16:cicOverflow_Interrupt
 474 033a C0F20000 		movt	r0, #:upper16:cicOverflow_Interrupt
ARM GAS  C:\DOCUME~1\ADMINI~1\LOCALS~1\Temp\ccCo8Fey.s 			page 14


 475 033e FFF7FEFF 		bl	isr_CICOverflow_StartEx
 264:.\AudioControl.c **** 		
 265:.\AudioControl.c ****         Droop_Filter_DALIGN_REG = 0x0C;  /* Align Data A & B holding register */
 476              		.loc 1 265 0
 477 0342 4CF2B473 		movw	r3, #:lower16:1073792948
 478 0346 C4F20003 		movt	r3, #:upper16:1073792948
 479 034a 4FF00C02 		mov	r2, #12
 480 034e 1A70     		strb	r2, [r3, #0]
 266:.\AudioControl.c ****         Droop_Filter_COHER_REG  = 0x55;  /* holding MID & staging MID for both A and B registers */
 481              		.loc 1 266 0
 482 0350 4CF2B073 		movw	r3, #:lower16:1073792944
 483 0354 C4F20003 		movt	r3, #:upper16:1073792944
 484 0358 4FF05502 		mov	r2, #85
 485 035c 1A70     		strb	r2, [r3, #0]
 267:.\AudioControl.c ****         Droop_Filter_Start();
 486              		.loc 1 267 0
 487 035e FFF7FEFF 		bl	Droop_Filter_Start
 268:.\AudioControl.c ****     #endif
 269:.\AudioControl.c **** 
 270:.\AudioControl.c ****    
 271:.\AudioControl.c ****     /* USER_CODE: [Audio Initialization] Placeholder for user code to initialize additional audio p
 272:.\AudioControl.c ****      * external audio peripheral configuration */
 273:.\AudioControl.c **** }
 488              		.loc 1 273 0
 489 0362 07F10C07 		add	r7, r7, #12
 490 0366 BD46     		mov	sp, r7
 491 0368 90BD     		pop	{r4, r7, pc}
 492              		.cfi_endproc
 493              	.LFE29:
 494              		.size	ConfigureAudioPath, .-ConfigureAudioPath
 495 036a 00BF     		.section	.text.ProcessAudioOut,"ax",%progbits
 496              		.align	2
 497              		.global	ProcessAudioOut
 498              		.thumb
 499              		.thumb_func
 500              		.type	ProcessAudioOut, %function
 501              	ProcessAudioOut:
 502              	.LFB30:
 274:.\AudioControl.c **** 
 275:.\AudioControl.c **** /*******************************************************************************
 276:.\AudioControl.c **** * Function Name: ProcessAudioOut
 277:.\AudioControl.c **** ********************************************************************************
 278:.\AudioControl.c **** * Summary:
 279:.\AudioControl.c **** *        Handle audio out data, setup USB DMA and trigger the DMA to transfer 
 280:.\AudioControl.c **** *        audio samples from SRAM USB endpoint memory to SRAM audio circular 
 281:.\AudioControl.c **** *        buffer. The API also starts the I2S transmit when USB audio out streaming 
 282:.\AudioControl.c **** *        is active
 283:.\AudioControl.c **** *
 284:.\AudioControl.c **** * Parameters:
 285:.\AudioControl.c **** *  void
 286:.\AudioControl.c **** *
 287:.\AudioControl.c **** * Return:
 288:.\AudioControl.c **** *  void
 289:.\AudioControl.c **** *
 290:.\AudioControl.c **** *******************************************************************************/
 291:.\AudioControl.c **** #ifndef ENABLE_DIGITAL_AUDIO_IN_ONLY
 292:.\AudioControl.c **** void ProcessAudioOut(void) 
ARM GAS  C:\DOCUME~1\ADMINI~1\LOCALS~1\Temp\ccCo8Fey.s 			page 15


 293:.\AudioControl.c **** {
 503              		.loc 1 293 0
 504              		.cfi_startproc
 505              		@ args = 0, pretend = 0, frame = 8
 506              		@ frame_needed = 1, uses_anonymous_args = 0
 507 0000 80B5     		push	{r7, lr}
 508              	.LCFI3:
 509              		.cfi_def_cfa_offset 8
 510 0002 82B0     		sub	sp, sp, #8
 511              	.LCFI4:
 512              		.cfi_def_cfa_offset 16
 513 0004 00AF     		add	r7, sp, #0
 514              		.cfi_offset 14, -4
 515              		.cfi_offset 7, -8
 516              	.LCFI5:
 517              		.cfi_def_cfa_register 7
 294:.\AudioControl.c **** 	uint16 count;
 295:.\AudioControl.c ****     uint16 remain;
 296:.\AudioControl.c ****     
 297:.\AudioControl.c ****     if( TRUE == audioClkConfigured
 518              		.loc 1 297 0
 519 0006 40F20003 		movw	r3, #:lower16:audioClkConfigured
 520 000a C0F20003 		movt	r3, #:upper16:audioClkConfigured
 521 000e 1B78     		ldrb	r3, [r3, #0]	@ zero_extendqisi2
 522 0010 012B     		cmp	r3, #1
 523 0012 40F09C81 		bne	.L14
 298:.\AudioControl.c ****         
 299:.\AudioControl.c ****       )
 300:.\AudioControl.c ****     {
 301:.\AudioControl.c ****         if (resetTx)         /* Check TX buffer reset condition and clear pointers if required */
 524              		.loc 1 301 0
 525 0016 40F20003 		movw	r3, #:lower16:resetTx
 526 001a C0F20003 		movt	r3, #:upper16:resetTx
 527 001e 1B78     		ldrb	r3, [r3, #0]	@ zero_extendqisi2
 528 0020 002B     		cmp	r3, #0
 529 0022 14D0     		beq	.L9
 302:.\AudioControl.c ****         {
 303:.\AudioControl.c ****             outBufIndex = 0;
 530              		.loc 1 303 0
 531 0024 40F20003 		movw	r3, #:lower16:outBufIndex
 532 0028 C0F20003 		movt	r3, #:upper16:outBufIndex
 533 002c 4FF00002 		mov	r2, #0
 534 0030 1A80     		strh	r2, [r3, #0]	@ movhi
 304:.\AudioControl.c ****             outUsbCount = 0;
 535              		.loc 1 304 0
 536 0032 40F20003 		movw	r3, #:lower16:outUsbCount
 537 0036 C0F20003 		movt	r3, #:upper16:outUsbCount
 538 003a 4FF00002 		mov	r2, #0
 539 003e 1A80     		strh	r2, [r3, #0]	@ movhi
 305:.\AudioControl.c ****             resetTx = 0;
 540              		.loc 1 305 0
 541 0040 40F20003 		movw	r3, #:lower16:resetTx
 542 0044 C0F20003 		movt	r3, #:upper16:resetTx
 543 0048 4FF00002 		mov	r2, #0
 544 004c 1A70     		strb	r2, [r3, #0]
 545              	.L9:
 306:.\AudioControl.c ****         }
ARM GAS  C:\DOCUME~1\ADMINI~1\LOCALS~1\Temp\ccCo8Fey.s 			page 16


 307:.\AudioControl.c ****         
 308:.\AudioControl.c ****         CyDmaChDisable(USBOutDmaChan);    /* Disable the USBOut DMA channel */
 546              		.loc 1 308 0
 547 004e 40F20003 		movw	r3, #:lower16:USBOutDmaChan
 548 0052 C0F20003 		movt	r3, #:upper16:USBOutDmaChan
 549 0056 1B78     		ldrb	r3, [r3, #0]	@ zero_extendqisi2
 550 0058 1846     		mov	r0, r3
 551 005a FFF7FEFF 		bl	CyDmaChDisable
 309:.\AudioControl.c ****         
 310:.\AudioControl.c ****         count = USBFS_GetEPCount(AUDIO_OUT_ENDPOINT);
 552              		.loc 1 310 0
 553 005e 4FF00100 		mov	r0, #1
 554 0062 FFF7FEFF 		bl	USBFS_GetEPCount
 555 0066 0346     		mov	r3, r0
 556 0068 BB80     		strh	r3, [r7, #4]	@ movhi
 311:.\AudioControl.c ****     
 312:.\AudioControl.c ****         /* Update of usbCount needs to be atomic */
 313:.\AudioControl.c ****         isr_TxDMADone_Disable();
 557              		.loc 1 313 0
 558 006a FFF7FEFF 		bl	isr_TxDMADone_Disable
 314:.\AudioControl.c ****         outUsbCount += count;
 559              		.loc 1 314 0
 560 006e 40F20003 		movw	r3, #:lower16:outUsbCount
 561 0072 C0F20003 		movt	r3, #:upper16:outUsbCount
 562 0076 1A88     		ldrh	r2, [r3, #0]
 563 0078 BB88     		ldrh	r3, [r7, #4]	@ movhi
 564 007a 1344     		add	r3, r2, r3
 565 007c 9AB2     		uxth	r2, r3
 566 007e 40F20003 		movw	r3, #:lower16:outUsbCount
 567 0082 C0F20003 		movt	r3, #:upper16:outUsbCount
 568 0086 1A80     		strh	r2, [r3, #0]	@ movhi
 315:.\AudioControl.c ****         isr_TxDMADone_Enable();
 569              		.loc 1 315 0
 570 0088 FFF7FEFF 		bl	isr_TxDMADone_Enable
 316:.\AudioControl.c ****         
 317:.\AudioControl.c ****         if((outBufIndex + count) > sizeof(outBuffer))
 571              		.loc 1 317 0
 572 008c 40F20003 		movw	r3, #:lower16:outBufIndex
 573 0090 C0F20003 		movt	r3, #:upper16:outBufIndex
 574 0094 1B88     		ldrh	r3, [r3, #0]
 575 0096 1A46     		mov	r2, r3
 576 0098 BB88     		ldrh	r3, [r7, #4]
 577 009a 1344     		add	r3, r2, r3
 578 009c B3F5906F 		cmp	r3, #1152
 579 00a0 76D9     		bls	.L10
 318:.\AudioControl.c ****         {
 319:.\AudioControl.c ****             remain = sizeof(outBuffer) - outBufIndex;  /* Set up TD to wrap around circular buffer 
 580              		.loc 1 319 0
 581 00a2 40F20003 		movw	r3, #:lower16:outBufIndex
 582 00a6 C0F20003 		movt	r3, #:upper16:outBufIndex
 583 00aa 1B88     		ldrh	r3, [r3, #0]
 584 00ac C3F59063 		rsb	r3, r3, #1152
 585 00b0 FB80     		strh	r3, [r7, #6]	@ movhi
 320:.\AudioControl.c ****             
 321:.\AudioControl.c ****             CyDmaTdSetConfiguration(USBOutTd[0], remain, USBOutTd[1], TD_INC_SRC_ADR | TD_INC_DST_A
 586              		.loc 1 321 0
 587 00b2 40F20003 		movw	r3, #:lower16:USBOutTd
ARM GAS  C:\DOCUME~1\ADMINI~1\LOCALS~1\Temp\ccCo8Fey.s 			page 17


 588 00b6 C0F20003 		movt	r3, #:upper16:USBOutTd
 589 00ba 1978     		ldrb	r1, [r3, #0]	@ zero_extendqisi2
 590 00bc 40F20003 		movw	r3, #:lower16:USBOutTd
 591 00c0 C0F20003 		movt	r3, #:upper16:USBOutTd
 592 00c4 5B78     		ldrb	r3, [r3, #1]	@ zero_extendqisi2
 593 00c6 FA88     		ldrh	r2, [r7, #6]
 594 00c8 0846     		mov	r0, r1
 595 00ca 1146     		mov	r1, r2
 596 00cc 1A46     		mov	r2, r3
 597 00ce 4FF02303 		mov	r3, #35
 598 00d2 FFF7FEFF 		bl	CyDmaTdSetConfiguration
 322:.\AudioControl.c ****             CyDmaTdSetConfiguration(USBOutTd[1], count-remain, CY_DMA_DISABLE_TD, TD_INC_SRC_ADR | 
 599              		.loc 1 322 0
 600 00d6 40F20003 		movw	r3, #:lower16:USBOutTd
 601 00da C0F20003 		movt	r3, #:upper16:USBOutTd
 602 00de 5A78     		ldrb	r2, [r3, #1]	@ zero_extendqisi2
 603 00e0 B988     		ldrh	r1, [r7, #4]	@ movhi
 604 00e2 FB88     		ldrh	r3, [r7, #6]	@ movhi
 605 00e4 C3EB0103 		rsb	r3, r3, r1
 606 00e8 9BB2     		uxth	r3, r3
 607 00ea 1046     		mov	r0, r2
 608 00ec 1946     		mov	r1, r3
 609 00ee 4FF0FE02 		mov	r2, #254
 610 00f2 4FF00303 		mov	r3, #3
 611 00f6 FFF7FEFF 		bl	CyDmaTdSetConfiguration
 323:.\AudioControl.c ****             CyDmaTdSetAddress(USBOutTd[0], LO16( (uint32) outRam), LO16((uint32)outBuffer+outBufInd
 612              		.loc 1 323 0
 613 00fa 40F20003 		movw	r3, #:lower16:USBOutTd
 614 00fe C0F20003 		movt	r3, #:upper16:USBOutTd
 615 0102 1978     		ldrb	r1, [r3, #0]	@ zero_extendqisi2
 616 0104 40F20003 		movw	r3, #:lower16:outRam
 617 0108 C0F20003 		movt	r3, #:upper16:outRam
 618 010c 9AB2     		uxth	r2, r3
 619 010e 40F20003 		movw	r3, #:lower16:outBufIndex
 620 0112 C0F20003 		movt	r3, #:upper16:outBufIndex
 621 0116 1888     		ldrh	r0, [r3, #0]
 622 0118 40F20003 		movw	r3, #:lower16:outBuffer
 623 011c C0F20003 		movt	r3, #:upper16:outBuffer
 624 0120 9BB2     		uxth	r3, r3
 625 0122 0344     		add	r3, r0, r3
 626 0124 9BB2     		uxth	r3, r3
 627 0126 0846     		mov	r0, r1
 628 0128 1146     		mov	r1, r2
 629 012a 1A46     		mov	r2, r3
 630 012c FFF7FEFF 		bl	CyDmaTdSetAddress
 324:.\AudioControl.c ****             CyDmaTdSetAddress(USBOutTd[1], LO16( (uint32)outRam + remain), LO16((uint32)outBuffer))
 631              		.loc 1 324 0
 632 0130 40F20003 		movw	r3, #:lower16:USBOutTd
 633 0134 C0F20003 		movt	r3, #:upper16:USBOutTd
 634 0138 5978     		ldrb	r1, [r3, #1]	@ zero_extendqisi2
 635 013a 40F20003 		movw	r3, #:lower16:outRam
 636 013e C0F20003 		movt	r3, #:upper16:outRam
 637 0142 9AB2     		uxth	r2, r3
 638 0144 FB88     		ldrh	r3, [r7, #6]	@ movhi
 639 0146 1344     		add	r3, r2, r3
 640 0148 9AB2     		uxth	r2, r3
 641 014a 40F20003 		movw	r3, #:lower16:outBuffer
ARM GAS  C:\DOCUME~1\ADMINI~1\LOCALS~1\Temp\ccCo8Fey.s 			page 18


 642 014e C0F20003 		movt	r3, #:upper16:outBuffer
 643 0152 9BB2     		uxth	r3, r3
 644 0154 0846     		mov	r0, r1
 645 0156 1146     		mov	r1, r2
 646 0158 1A46     		mov	r2, r3
 647 015a FFF7FEFF 		bl	CyDmaTdSetAddress
 325:.\AudioControl.c **** 
 326:.\AudioControl.c ****             CyDmaChSetInitialTd(USBOutDmaChan, USBOutTd[0]);
 648              		.loc 1 326 0
 649 015e 40F20003 		movw	r3, #:lower16:USBOutDmaChan
 650 0162 C0F20003 		movt	r3, #:upper16:USBOutDmaChan
 651 0166 1A78     		ldrb	r2, [r3, #0]	@ zero_extendqisi2
 652 0168 40F20003 		movw	r3, #:lower16:USBOutTd
 653 016c C0F20003 		movt	r3, #:upper16:USBOutTd
 654 0170 1B78     		ldrb	r3, [r3, #0]	@ zero_extendqisi2
 655 0172 1046     		mov	r0, r2
 656 0174 1946     		mov	r1, r3
 657 0176 FFF7FEFF 		bl	CyDmaChSetInitialTd
 327:.\AudioControl.c ****             outBufIndex = count-remain;
 658              		.loc 1 327 0
 659 017a BA88     		ldrh	r2, [r7, #4]	@ movhi
 660 017c FB88     		ldrh	r3, [r7, #6]	@ movhi
 661 017e C3EB0203 		rsb	r3, r3, r2
 662 0182 9AB2     		uxth	r2, r3
 663 0184 40F20003 		movw	r3, #:lower16:outBufIndex
 664 0188 C0F20003 		movt	r3, #:upper16:outBufIndex
 665 018c 1A80     		strh	r2, [r3, #0]	@ movhi
 666 018e 52E0     		b	.L11
 667              	.L10:
 328:.\AudioControl.c ****         }
 329:.\AudioControl.c ****         else 
 330:.\AudioControl.c ****         {
 331:.\AudioControl.c ****             /* Single contiguous TD */
 332:.\AudioControl.c ****             CyDmaTdSetConfiguration(USBOutTd[0], count, CY_DMA_DISABLE_TD, TD_INC_SRC_ADR | TD_INC_
 668              		.loc 1 332 0
 669 0190 40F20003 		movw	r3, #:lower16:USBOutTd
 670 0194 C0F20003 		movt	r3, #:upper16:USBOutTd
 671 0198 1A78     		ldrb	r2, [r3, #0]	@ zero_extendqisi2
 672 019a BB88     		ldrh	r3, [r7, #4]
 673 019c 1046     		mov	r0, r2
 674 019e 1946     		mov	r1, r3
 675 01a0 4FF0FE02 		mov	r2, #254
 676 01a4 4FF00303 		mov	r3, #3
 677 01a8 FFF7FEFF 		bl	CyDmaTdSetConfiguration
 333:.\AudioControl.c ****             CyDmaTdSetAddress(USBOutTd[0], LO16( (uint32)outRam), LO16((uint32)outBuffer+outBufInde
 678              		.loc 1 333 0
 679 01ac 40F20003 		movw	r3, #:lower16:USBOutTd
 680 01b0 C0F20003 		movt	r3, #:upper16:USBOutTd
 681 01b4 1978     		ldrb	r1, [r3, #0]	@ zero_extendqisi2
 682 01b6 40F20003 		movw	r3, #:lower16:outRam
 683 01ba C0F20003 		movt	r3, #:upper16:outRam
 684 01be 9AB2     		uxth	r2, r3
 685 01c0 40F20003 		movw	r3, #:lower16:outBufIndex
 686 01c4 C0F20003 		movt	r3, #:upper16:outBufIndex
 687 01c8 1888     		ldrh	r0, [r3, #0]
 688 01ca 40F20003 		movw	r3, #:lower16:outBuffer
 689 01ce C0F20003 		movt	r3, #:upper16:outBuffer
ARM GAS  C:\DOCUME~1\ADMINI~1\LOCALS~1\Temp\ccCo8Fey.s 			page 19


 690 01d2 9BB2     		uxth	r3, r3
 691 01d4 0344     		add	r3, r0, r3
 692 01d6 9BB2     		uxth	r3, r3
 693 01d8 0846     		mov	r0, r1
 694 01da 1146     		mov	r1, r2
 695 01dc 1A46     		mov	r2, r3
 696 01de FFF7FEFF 		bl	CyDmaTdSetAddress
 334:.\AudioControl.c ****             CyDmaChSetInitialTd(USBOutDmaChan, USBOutTd[0]);
 697              		.loc 1 334 0
 698 01e2 40F20003 		movw	r3, #:lower16:USBOutDmaChan
 699 01e6 C0F20003 		movt	r3, #:upper16:USBOutDmaChan
 700 01ea 1A78     		ldrb	r2, [r3, #0]	@ zero_extendqisi2
 701 01ec 40F20003 		movw	r3, #:lower16:USBOutTd
 702 01f0 C0F20003 		movt	r3, #:upper16:USBOutTd
 703 01f4 1B78     		ldrb	r3, [r3, #0]	@ zero_extendqisi2
 704 01f6 1046     		mov	r0, r2
 705 01f8 1946     		mov	r1, r3
 706 01fa FFF7FEFF 		bl	CyDmaChSetInitialTd
 335:.\AudioControl.c ****             outBufIndex += count;
 707              		.loc 1 335 0
 708 01fe 40F20003 		movw	r3, #:lower16:outBufIndex
 709 0202 C0F20003 		movt	r3, #:upper16:outBufIndex
 710 0206 1A88     		ldrh	r2, [r3, #0]
 711 0208 BB88     		ldrh	r3, [r7, #4]	@ movhi
 712 020a 1344     		add	r3, r2, r3
 713 020c 9AB2     		uxth	r2, r3
 714 020e 40F20003 		movw	r3, #:lower16:outBufIndex
 715 0212 C0F20003 		movt	r3, #:upper16:outBufIndex
 716 0216 1A80     		strh	r2, [r3, #0]	@ movhi
 336:.\AudioControl.c ****             if (outBufIndex == sizeof(outBuffer)) outBufIndex = 0;
 717              		.loc 1 336 0
 718 0218 40F20003 		movw	r3, #:lower16:outBufIndex
 719 021c C0F20003 		movt	r3, #:upper16:outBufIndex
 720 0220 1B88     		ldrh	r3, [r3, #0]
 721 0222 B3F5906F 		cmp	r3, #1152
 722 0226 06D1     		bne	.L11
 723 0228 40F20003 		movw	r3, #:lower16:outBufIndex
 724 022c C0F20003 		movt	r3, #:upper16:outBufIndex
 725 0230 4FF00002 		mov	r2, #0
 726 0234 1A80     		strh	r2, [r3, #0]	@ movhi
 727              	.L11:
 337:.\AudioControl.c ****         }
 338:.\AudioControl.c ****         
 339:.\AudioControl.c ****         CyDmaChEnable(USBOutDmaChan, 1);           /* Enable the USB Out DMA, don't update the Td a
 728              		.loc 1 339 0
 729 0236 40F20003 		movw	r3, #:lower16:USBOutDmaChan
 730 023a C0F20003 		movt	r3, #:upper16:USBOutDmaChan
 731 023e 1B78     		ldrb	r3, [r3, #0]	@ zero_extendqisi2
 732 0240 1846     		mov	r0, r3
 733 0242 4FF00101 		mov	r1, #1
 734 0246 FFF7FEFF 		bl	CyDmaChEnable
 340:.\AudioControl.c ****         
 341:.\AudioControl.c ****         CyDmaChSetRequest(USBOutDmaChan, CPU_REQ); /* Start the DMA */
 735              		.loc 1 341 0
 736 024a 40F20003 		movw	r3, #:lower16:USBOutDmaChan
 737 024e C0F20003 		movt	r3, #:upper16:USBOutDmaChan
 738 0252 1B78     		ldrb	r3, [r3, #0]	@ zero_extendqisi2
ARM GAS  C:\DOCUME~1\ADMINI~1\LOCALS~1\Temp\ccCo8Fey.s 			page 20


 739 0254 1846     		mov	r0, r3
 740 0256 4FF00101 		mov	r1, #1
 741 025a FFF7FEFF 		bl	CyDmaChSetRequest
 342:.\AudioControl.c ****     
 343:.\AudioControl.c ****         /* Start playing audio only when transmit buffer is more than half full */
 344:.\AudioControl.c ****         if(!outPlaying && outUsbCount >= OUT_HALF)
 742              		.loc 1 344 0
 743 025e 40F20003 		movw	r3, #:lower16:outPlaying
 744 0262 C0F20003 		movt	r3, #:upper16:outPlaying
 745 0266 1B78     		ldrb	r3, [r3, #0]	@ zero_extendqisi2
 746 0268 002B     		cmp	r3, #0
 747 026a 70D1     		bne	.L14
 748 026c 40F20003 		movw	r3, #:lower16:outUsbCount
 749 0270 C0F20003 		movt	r3, #:upper16:outUsbCount
 750 0274 1A88     		ldrh	r2, [r3, #0]
 751 0276 40F23F23 		movw	r3, #575
 752 027a 9A42     		cmp	r2, r3
 753 027c 67D9     		bls	.L14
 345:.\AudioControl.c ****         {
 346:.\AudioControl.c ****             outPlaying = TRUE;
 754              		.loc 1 346 0
 755 027e 40F20003 		movw	r3, #:lower16:outPlaying
 756 0282 C0F20003 		movt	r3, #:upper16:outPlaying
 757 0286 4FF00102 		mov	r2, #1
 758 028a 1A70     		strb	r2, [r3, #0]
 347:.\AudioControl.c ****             
 348:.\AudioControl.c ****             I2S_ClearTxFIFO(); /* Clear the I2S internal FIFO */
 759              		.loc 1 348 0
 760 028c FFF7FEFF 		bl	I2S_ClearTxFIFO
 761              	.L12:
 349:.\AudioControl.c ****             
 350:.\AudioControl.c ****             /* clear any potential DMA requests and re-reset TD pointer */
 351:.\AudioControl.c ****             while((DMAC_CH[txDmaChan].basic_status[0] & 2));
 762              		.loc 1 351 0
 763 0290 40F20003 		movw	r3, #:lower16:txDmaChan
 764 0294 C0F20003 		movt	r3, #:upper16:txDmaChan
 765 0298 1B78     		ldrb	r3, [r3, #0]	@ zero_extendqisi2
 766 029a 4FEA0312 		lsl	r2, r3, #4
 767 029e 47F21003 		movw	r3, #:lower16:1073770512
 768 02a2 C4F20003 		movt	r3, #:upper16:1073770512
 769 02a6 1344     		add	r3, r2, r3
 770 02a8 1B7A     		ldrb	r3, [r3, #8]
 771 02aa DBB2     		uxtb	r3, r3
 772 02ac 03F00203 		and	r3, r3, #2
 773 02b0 002B     		cmp	r3, #0
 774 02b2 EDD1     		bne	.L12
 352:.\AudioControl.c ****     
 353:.\AudioControl.c ****             CyDmaChSetRequest(txDmaChan, CPU_TERM_CHAIN);
 775              		.loc 1 353 0
 776 02b4 40F20003 		movw	r3, #:lower16:txDmaChan
 777 02b8 C0F20003 		movt	r3, #:upper16:txDmaChan
 778 02bc 1B78     		ldrb	r3, [r3, #0]	@ zero_extendqisi2
 779 02be 1846     		mov	r0, r3
 780 02c0 4FF00401 		mov	r1, #4
 781 02c4 FFF7FEFF 		bl	CyDmaChSetRequest
 354:.\AudioControl.c ****             CyDmaChEnable(txDmaChan, 1);
 782              		.loc 1 354 0
ARM GAS  C:\DOCUME~1\ADMINI~1\LOCALS~1\Temp\ccCo8Fey.s 			page 21


 783 02c8 40F20003 		movw	r3, #:lower16:txDmaChan
 784 02cc C0F20003 		movt	r3, #:upper16:txDmaChan
 785 02d0 1B78     		ldrb	r3, [r3, #0]	@ zero_extendqisi2
 786 02d2 1846     		mov	r0, r3
 787 02d4 4FF00101 		mov	r1, #1
 788 02d8 FFF7FEFF 		bl	CyDmaChEnable
 789              	.L13:
 355:.\AudioControl.c ****     
 356:.\AudioControl.c ****             while((DMAC_CH[txDmaChan].basic_cfg[0] & 1));
 790              		.loc 1 356 0
 791 02dc 40F20003 		movw	r3, #:lower16:txDmaChan
 792 02e0 C0F20003 		movt	r3, #:upper16:txDmaChan
 793 02e4 1B78     		ldrb	r3, [r3, #0]	@ zero_extendqisi2
 794 02e6 4FEA0312 		lsl	r2, r3, #4
 795 02ea 47F21003 		movw	r3, #:lower16:1073770512
 796 02ee C4F20003 		movt	r3, #:upper16:1073770512
 797 02f2 1344     		add	r3, r2, r3
 798 02f4 1B78     		ldrb	r3, [r3, #0]
 799 02f6 DBB2     		uxtb	r3, r3
 800 02f8 03F00103 		and	r3, r3, #1
 801 02fc DBB2     		uxtb	r3, r3
 802 02fe 002B     		cmp	r3, #0
 803 0300 ECD1     		bne	.L13
 357:.\AudioControl.c **** 
 358:.\AudioControl.c ****             /* Enable the Tx DMA, initialized to start of buffer */
 359:.\AudioControl.c ****             CyDmaChSetInitialTd(txDmaChan, txTd[0]);
 804              		.loc 1 359 0
 805 0302 40F20003 		movw	r3, #:lower16:txDmaChan
 806 0306 C0F20003 		movt	r3, #:upper16:txDmaChan
 807 030a 1A78     		ldrb	r2, [r3, #0]	@ zero_extendqisi2
 808 030c 40F20003 		movw	r3, #:lower16:txTd
 809 0310 C0F20003 		movt	r3, #:upper16:txTd
 810 0314 1B78     		ldrb	r3, [r3, #0]	@ zero_extendqisi2
 811 0316 1046     		mov	r0, r2
 812 0318 1946     		mov	r1, r3
 813 031a FFF7FEFF 		bl	CyDmaChSetInitialTd
 360:.\AudioControl.c ****             CyDmaChEnable(txDmaChan, 1);
 814              		.loc 1 360 0
 815 031e 40F20003 		movw	r3, #:lower16:txDmaChan
 816 0322 C0F20003 		movt	r3, #:upper16:txDmaChan
 817 0326 1B78     		ldrb	r3, [r3, #0]	@ zero_extendqisi2
 818 0328 1846     		mov	r0, r3
 819 032a 4FF00101 		mov	r1, #1
 820 032e FFF7FEFF 		bl	CyDmaChEnable
 361:.\AudioControl.c ****             
 362:.\AudioControl.c ****             ByteSwap_Tx_Start();
 821              		.loc 1 362 0
 822 0332 FFF7FEFF 		bl	ByteSwap_Tx_Start
 363:.\AudioControl.c ****                       
 364:.\AudioControl.c ****             CyDmaChEnable(I2STxDMAChan, 1);   /* enable byte swap to I2S DMA channel */
 823              		.loc 1 364 0
 824 0336 40F20003 		movw	r3, #:lower16:I2STxDMAChan
 825 033a C0F20003 		movt	r3, #:upper16:I2STxDMAChan
 826 033e 1B78     		ldrb	r3, [r3, #0]	@ zero_extendqisi2
 827 0340 1846     		mov	r0, r3
 828 0342 4FF00101 		mov	r1, #1
 829 0346 FFF7FEFF 		bl	CyDmaChEnable
ARM GAS  C:\DOCUME~1\ADMINI~1\LOCALS~1\Temp\ccCo8Fey.s 			page 22


 365:.\AudioControl.c **** 
 366:.\AudioControl.c ****             I2S_EnableTx();                   /* Unmute the Tx output */
 830              		.loc 1 366 0
 831 034a FFF7FEFF 		bl	I2S_EnableTx
 832              	.L14:
 367:.\AudioControl.c ****             
 368:.\AudioControl.c ****             
 369:.\AudioControl.c ****         }
 370:.\AudioControl.c ****         
 371:.\AudioControl.c ****         /* USER_CODE: [USB audio OUT endpoint ISR] Placeholder for user code to know when an USB au
 372:.\AudioControl.c ****          * received from the USB host. This routine is called from an ISR, do not add time consumin
 373:.\AudioControl.c ****          * this routine so that other interrupts in the system can be serviced in a timely manner *
 374:.\AudioControl.c ****     }
 375:.\AudioControl.c **** }
 833              		.loc 1 375 0
 834 034e 07F10807 		add	r7, r7, #8
 835 0352 BD46     		mov	sp, r7
 836 0354 80BD     		pop	{r7, pc}
 837              		.cfi_endproc
 838              	.LFE30:
 839              		.size	ProcessAudioOut, .-ProcessAudioOut
 840 0356 00BF     		.section	.text.ProcessAudioIn,"ax",%progbits
 841              		.align	2
 842              		.global	ProcessAudioIn
 843              		.thumb
 844              		.thumb_func
 845              		.type	ProcessAudioIn, %function
 846              	ProcessAudioIn:
 847              	.LFB31:
 376:.\AudioControl.c **** #endif
 377:.\AudioControl.c **** 
 378:.\AudioControl.c **** /*******************************************************************************
 379:.\AudioControl.c **** * Function Name: ProcessAudioIn
 380:.\AudioControl.c **** ********************************************************************************
 381:.\AudioControl.c **** * Summary:
 382:.\AudioControl.c **** *        Handle USB audio in data, setup USB DMA and trigger to transfer samples 
 383:.\AudioControl.c **** *        from SRAM audio circular buffer to SRAM USB endpoint memory.  Start PDM 
 384:.\AudioControl.c **** *		 receive when USB is active.
 385:.\AudioControl.c **** *
 386:.\AudioControl.c **** * Parameters:
 387:.\AudioControl.c **** *  void
 388:.\AudioControl.c **** *
 389:.\AudioControl.c **** * Return:
 390:.\AudioControl.c **** *  void
 391:.\AudioControl.c **** *
 392:.\AudioControl.c **** *******************************************************************************/
 393:.\AudioControl.c **** #ifndef ENABLE_DIGITAL_AUDIO_OUT_ONLY
 394:.\AudioControl.c **** void ProcessAudioIn(void)
 395:.\AudioControl.c **** {   
 848              		.loc 1 395 0
 849              		.cfi_startproc
 850              		@ args = 0, pretend = 0, frame = 8
 851              		@ frame_needed = 1, uses_anonymous_args = 0
 852 0000 80B5     		push	{r7, lr}
 853              	.LCFI6:
 854              		.cfi_def_cfa_offset 8
 855 0002 82B0     		sub	sp, sp, #8
ARM GAS  C:\DOCUME~1\ADMINI~1\LOCALS~1\Temp\ccCo8Fey.s 			page 23


 856              	.LCFI7:
 857              		.cfi_def_cfa_offset 16
 858 0004 00AF     		add	r7, sp, #0
 859              		.cfi_offset 14, -4
 860              		.cfi_offset 7, -8
 861              	.LCFI8:
 862              		.cfi_def_cfa_register 7
 396:.\AudioControl.c **** 	uint16 remain;
 397:.\AudioControl.c ****     uint16 count = IN_AUDIOMAXPKT;
 863              		.loc 1 397 0
 864 0006 4FF0C003 		mov	r3, #192
 865 000a FB80     		strh	r3, [r7, #6]	@ movhi
 398:.\AudioControl.c ****     static uint8 rate44_count = 0;
 399:.\AudioControl.c ****     
 400:.\AudioControl.c ****     if( audioClkConfigured ==  TRUE )
 866              		.loc 1 400 0
 867 000c 40F20003 		movw	r3, #:lower16:audioClkConfigured
 868 0010 C0F20003 		movt	r3, #:upper16:audioClkConfigured
 869 0014 1B78     		ldrb	r3, [r3, #0]	@ zero_extendqisi2
 870 0016 012B     		cmp	r3, #1
 871 0018 40F0A581 		bne	.L26
 401:.\AudioControl.c ****     {
 402:.\AudioControl.c ****         if (resetRx)
 872              		.loc 1 402 0
 873 001c 40F20003 		movw	r3, #:lower16:resetRx
 874 0020 C0F20003 		movt	r3, #:upper16:resetRx
 875 0024 1B78     		ldrb	r3, [r3, #0]	@ zero_extendqisi2
 876 0026 002B     		cmp	r3, #0
 877 0028 1BD0     		beq	.L17
 403:.\AudioControl.c ****         {
 404:.\AudioControl.c ****             inBufIndex = 0;
 878              		.loc 1 404 0
 879 002a 40F20003 		movw	r3, #:lower16:inBufIndex
 880 002e C0F20003 		movt	r3, #:upper16:inBufIndex
 881 0032 4FF00002 		mov	r2, #0
 882 0036 1A80     		strh	r2, [r3, #0]	@ movhi
 405:.\AudioControl.c ****             inUsbCount = 0;
 883              		.loc 1 405 0
 884 0038 40F20003 		movw	r3, #:lower16:inUsbCount
 885 003c C0F20003 		movt	r3, #:upper16:inUsbCount
 886 0040 4FF00002 		mov	r2, #0
 887 0044 1A80     		strh	r2, [r3, #0]	@ movhi
 406:.\AudioControl.c ****             resetRx = 0;
 888              		.loc 1 406 0
 889 0046 40F20003 		movw	r3, #:lower16:resetRx
 890 004a C0F20003 		movt	r3, #:upper16:resetRx
 891 004e 4FF00002 		mov	r2, #0
 892 0052 1A70     		strb	r2, [r3, #0]
 407:.\AudioControl.c ****             rate44_count = 0;    
 893              		.loc 1 407 0
 894 0054 40F20003 		movw	r3, #:lower16:rate44_count.3602
 895 0058 C0F20003 		movt	r3, #:upper16:rate44_count.3602
 896 005c 4FF00002 		mov	r2, #0
 897 0060 1A70     		strb	r2, [r3, #0]
 898              	.L17:
 408:.\AudioControl.c ****         }
 409:.\AudioControl.c ****         
ARM GAS  C:\DOCUME~1\ADMINI~1\LOCALS~1\Temp\ccCo8Fey.s 			page 24


 410:.\AudioControl.c ****         CyDmaChDisable(USBInDmaChan);
 899              		.loc 1 410 0
 900 0062 40F20003 		movw	r3, #:lower16:USBInDmaChan
 901 0066 C0F20003 		movt	r3, #:upper16:USBInDmaChan
 902 006a 1B78     		ldrb	r3, [r3, #0]	@ zero_extendqisi2
 903 006c 1846     		mov	r0, r3
 904 006e FFF7FEFF 		bl	CyDmaChDisable
 411:.\AudioControl.c ****         
 412:.\AudioControl.c ****         switch(rate)
 905              		.loc 1 412 0
 906 0072 40F20003 		movw	r3, #:lower16:rate
 907 0076 C0F20003 		movt	r3, #:upper16:rate
 908 007a 1B78     		ldrb	r3, [r3, #0]	@ zero_extendqisi2
 909 007c 012B     		cmp	r3, #1
 910 007e 07D0     		beq	.L20
 911 0080 022B     		cmp	r3, #2
 912 0082 28D0     		beq	.L21
 913 0084 002B     		cmp	r3, #0
 914 0086 29D1     		bne	.L18
 915              	.L19:
 413:.\AudioControl.c ****         {
 414:.\AudioControl.c ****             case RATE_48KHZ:                    
 415:.\AudioControl.c ****                     count = IN_AUDIOMAXPKT;        /* Count is number of bytes consumed from the bu
 916              		.loc 1 415 0
 917 0088 4FF0C003 		mov	r3, #192
 918 008c FB80     		strh	r3, [r7, #6]	@ movhi
 416:.\AudioControl.c ****                 break;
 919              		.loc 1 416 0
 920 008e 25E0     		b	.L18
 921              	.L20:
 417:.\AudioControl.c ****             case RATE_44KHZ:
 418:.\AudioControl.c ****                     if(9 == rate44_count) 
 922              		.loc 1 418 0
 923 0090 40F20003 		movw	r3, #:lower16:rate44_count.3602
 924 0094 C0F20003 		movt	r3, #:upper16:rate44_count.3602
 925 0098 1B78     		ldrb	r3, [r3, #0]	@ zero_extendqisi2
 926 009a 092B     		cmp	r3, #9
 927 009c 0AD1     		bne	.L22
 419:.\AudioControl.c ****                     {                            
 420:.\AudioControl.c ****                         count = IN_AUDIOMAXPKT - (IN_AUDIOMAXPKT/16);  /* adjust the count to cater
 928              		.loc 1 420 0
 929 009e 4FF0B403 		mov	r3, #180
 930 00a2 FB80     		strh	r3, [r7, #6]	@ movhi
 421:.\AudioControl.c ****                         rate44_count = 0;
 931              		.loc 1 421 0
 932 00a4 40F20003 		movw	r3, #:lower16:rate44_count.3602
 933 00a8 C0F20003 		movt	r3, #:upper16:rate44_count.3602
 934 00ac 4FF00002 		mov	r2, #0
 935 00b0 1A70     		strb	r2, [r3, #0]
 422:.\AudioControl.c ****                     }
 423:.\AudioControl.c ****                     else 
 424:.\AudioControl.c ****                     {                            
 425:.\AudioControl.c ****                         count = IN_AUDIOMAXPKT - (IN_AUDIOMAXPKT/12); /* adjust the count to cater 
 426:.\AudioControl.c ****                         rate44_count++;
 427:.\AudioControl.c ****                     }
 428:.\AudioControl.c ****                 break;
 936              		.loc 1 428 0
ARM GAS  C:\DOCUME~1\ADMINI~1\LOCALS~1\Temp\ccCo8Fey.s 			page 25


 937 00b2 13E0     		b	.L18
 938              	.L22:
 939              		.loc 1 425 0
 940 00b4 4FF0B003 		mov	r3, #176
 941 00b8 FB80     		strh	r3, [r7, #6]	@ movhi
 942              		.loc 1 426 0
 943 00ba 40F20003 		movw	r3, #:lower16:rate44_count.3602
 944 00be C0F20003 		movt	r3, #:upper16:rate44_count.3602
 945 00c2 1B78     		ldrb	r3, [r3, #0]	@ zero_extendqisi2
 946 00c4 03F10103 		add	r3, r3, #1
 947 00c8 DAB2     		uxtb	r2, r3
 948 00ca 40F20003 		movw	r3, #:lower16:rate44_count.3602
 949 00ce C0F20003 		movt	r3, #:upper16:rate44_count.3602
 950 00d2 1A70     		strb	r2, [r3, #0]
 951              		.loc 1 428 0
 952 00d4 02E0     		b	.L18
 953              	.L21:
 429:.\AudioControl.c ****             case RATE_32KHZ:                
 430:.\AudioControl.c ****                     count = IN_AUDIOMAXPKT - (IN_AUDIOMAXPKT/3);        
 954              		.loc 1 430 0
 955 00d6 4FF08003 		mov	r3, #128
 956 00da FB80     		strh	r3, [r7, #6]	@ movhi
 957              	.L18:
 431:.\AudioControl.c ****                 break;
 432:.\AudioControl.c ****             default:
 433:.\AudioControl.c ****                 break;
 434:.\AudioControl.c ****         }
 435:.\AudioControl.c ****         
 436:.\AudioControl.c ****         inCnt = count;
 958              		.loc 1 436 0
 959 00dc 40F20003 		movw	r3, #:lower16:inCnt
 960 00e0 C0F20003 		movt	r3, #:upper16:inCnt
 961 00e4 FA88     		ldrh	r2, [r7, #6]	@ movhi
 962 00e6 1A80     		strh	r2, [r3, #0]	@ movhi
 437:.\AudioControl.c ****          
 438:.\AudioControl.c ****         /* Update of inUsbCount needs to be atomic */
 439:.\AudioControl.c ****         isr_RxDMADone_Disable();
 963              		.loc 1 439 0
 964 00e8 FFF7FEFF 		bl	isr_RxDMADone_Disable
 440:.\AudioControl.c ****         inUsbCount += count;
 965              		.loc 1 440 0
 966 00ec 40F20003 		movw	r3, #:lower16:inUsbCount
 967 00f0 C0F20003 		movt	r3, #:upper16:inUsbCount
 968 00f4 1A88     		ldrh	r2, [r3, #0]
 969 00f6 FB88     		ldrh	r3, [r7, #6]	@ movhi
 970 00f8 1344     		add	r3, r2, r3
 971 00fa 9AB2     		uxth	r2, r3
 972 00fc 40F20003 		movw	r3, #:lower16:inUsbCount
 973 0100 C0F20003 		movt	r3, #:upper16:inUsbCount
 974 0104 1A80     		strh	r2, [r3, #0]	@ movhi
 441:.\AudioControl.c ****         isr_RxDMADone_Enable();
 975              		.loc 1 441 0
 976 0106 FFF7FEFF 		bl	isr_RxDMADone_Enable
 442:.\AudioControl.c ****                 
 443:.\AudioControl.c ****         if ((inBufIndex + count) > sizeof(inBuffer)) 
 977              		.loc 1 443 0
 978 010a 40F20003 		movw	r3, #:lower16:inBufIndex
ARM GAS  C:\DOCUME~1\ADMINI~1\LOCALS~1\Temp\ccCo8Fey.s 			page 26


 979 010e C0F20003 		movt	r3, #:upper16:inBufIndex
 980 0112 1B88     		ldrh	r3, [r3, #0]
 981 0114 1A46     		mov	r2, r3
 982 0116 FB88     		ldrh	r3, [r7, #6]
 983 0118 1344     		add	r3, r2, r3
 984 011a B3F5407F 		cmp	r3, #768
 985 011e 76D9     		bls	.L24
 444:.\AudioControl.c ****         {
 445:.\AudioControl.c ****             /* Set up TD to wrap around circular buffer */
 446:.\AudioControl.c ****             remain = sizeof(inBuffer) - inBufIndex;
 986              		.loc 1 446 0
 987 0120 40F20003 		movw	r3, #:lower16:inBufIndex
 988 0124 C0F20003 		movt	r3, #:upper16:inBufIndex
 989 0128 1B88     		ldrh	r3, [r3, #0]
 990 012a C3F54073 		rsb	r3, r3, #768
 991 012e BB80     		strh	r3, [r7, #4]	@ movhi
 447:.\AudioControl.c **** 
 448:.\AudioControl.c ****             CyDmaTdSetConfiguration(USBInTd[0], remain, USBInTd[1], TD_INC_SRC_ADR | TD_INC_DST_ADR
 992              		.loc 1 448 0
 993 0130 40F20003 		movw	r3, #:lower16:USBInTd
 994 0134 C0F20003 		movt	r3, #:upper16:USBInTd
 995 0138 1978     		ldrb	r1, [r3, #0]	@ zero_extendqisi2
 996 013a 40F20003 		movw	r3, #:lower16:USBInTd
 997 013e C0F20003 		movt	r3, #:upper16:USBInTd
 998 0142 5B78     		ldrb	r3, [r3, #1]	@ zero_extendqisi2
 999 0144 BA88     		ldrh	r2, [r7, #4]
 1000 0146 0846     		mov	r0, r1
 1001 0148 1146     		mov	r1, r2
 1002 014a 1A46     		mov	r2, r3
 1003 014c 4FF02303 		mov	r3, #35
 1004 0150 FFF7FEFF 		bl	CyDmaTdSetConfiguration
 449:.\AudioControl.c ****             CyDmaTdSetConfiguration(USBInTd[1], count-remain, CY_DMA_DISABLE_TD, TD_INC_SRC_ADR | T
 1005              		.loc 1 449 0
 1006 0154 40F20003 		movw	r3, #:lower16:USBInTd
 1007 0158 C0F20003 		movt	r3, #:upper16:USBInTd
 1008 015c 5A78     		ldrb	r2, [r3, #1]	@ zero_extendqisi2
 1009 015e F988     		ldrh	r1, [r7, #6]	@ movhi
 1010 0160 BB88     		ldrh	r3, [r7, #4]	@ movhi
 1011 0162 C3EB0103 		rsb	r3, r3, r1
 1012 0166 9BB2     		uxth	r3, r3
 1013 0168 1046     		mov	r0, r2
 1014 016a 1946     		mov	r1, r3
 1015 016c 4FF0FE02 		mov	r2, #254
 1016 0170 4FF00703 		mov	r3, #7
 1017 0174 FFF7FEFF 		bl	CyDmaTdSetConfiguration
 450:.\AudioControl.c ****             CyDmaTdSetAddress(USBInTd[0], LO16((uint32)inBuffer+inBufIndex), LO16((uint32) inRam));
 1018              		.loc 1 450 0
 1019 0178 40F20003 		movw	r3, #:lower16:USBInTd
 1020 017c C0F20003 		movt	r3, #:upper16:USBInTd
 1021 0180 1978     		ldrb	r1, [r3, #0]	@ zero_extendqisi2
 1022 0182 40F20003 		movw	r3, #:lower16:inBufIndex
 1023 0186 C0F20003 		movt	r3, #:upper16:inBufIndex
 1024 018a 1A88     		ldrh	r2, [r3, #0]
 1025 018c 40F20003 		movw	r3, #:lower16:inBuffer
 1026 0190 C0F20003 		movt	r3, #:upper16:inBuffer
 1027 0194 9BB2     		uxth	r3, r3
 1028 0196 1344     		add	r3, r2, r3
ARM GAS  C:\DOCUME~1\ADMINI~1\LOCALS~1\Temp\ccCo8Fey.s 			page 27


 1029 0198 9AB2     		uxth	r2, r3
 1030 019a 40F20003 		movw	r3, #:lower16:inRam
 1031 019e C0F20003 		movt	r3, #:upper16:inRam
 1032 01a2 9BB2     		uxth	r3, r3
 1033 01a4 0846     		mov	r0, r1
 1034 01a6 1146     		mov	r1, r2
 1035 01a8 1A46     		mov	r2, r3
 1036 01aa FFF7FEFF 		bl	CyDmaTdSetAddress
 451:.\AudioControl.c ****             CyDmaTdSetAddress(USBInTd[1], LO16((uint32)inBuffer), LO16((uint32) inRam + remain));
 1037              		.loc 1 451 0
 1038 01ae 40F20003 		movw	r3, #:lower16:USBInTd
 1039 01b2 C0F20003 		movt	r3, #:upper16:USBInTd
 1040 01b6 5978     		ldrb	r1, [r3, #1]	@ zero_extendqisi2
 1041 01b8 40F20003 		movw	r3, #:lower16:inBuffer
 1042 01bc C0F20003 		movt	r3, #:upper16:inBuffer
 1043 01c0 9AB2     		uxth	r2, r3
 1044 01c2 40F20003 		movw	r3, #:lower16:inRam
 1045 01c6 C0F20003 		movt	r3, #:upper16:inRam
 1046 01ca 98B2     		uxth	r0, r3
 1047 01cc BB88     		ldrh	r3, [r7, #4]	@ movhi
 1048 01ce 0344     		add	r3, r0, r3
 1049 01d0 9BB2     		uxth	r3, r3
 1050 01d2 0846     		mov	r0, r1
 1051 01d4 1146     		mov	r1, r2
 1052 01d6 1A46     		mov	r2, r3
 1053 01d8 FFF7FEFF 		bl	CyDmaTdSetAddress
 452:.\AudioControl.c ****              
 453:.\AudioControl.c ****             CyDmaChSetInitialTd(USBInDmaChan, USBInTd[0]);
 1054              		.loc 1 453 0
 1055 01dc 40F20003 		movw	r3, #:lower16:USBInDmaChan
 1056 01e0 C0F20003 		movt	r3, #:upper16:USBInDmaChan
 1057 01e4 1A78     		ldrb	r2, [r3, #0]	@ zero_extendqisi2
 1058 01e6 40F20003 		movw	r3, #:lower16:USBInTd
 1059 01ea C0F20003 		movt	r3, #:upper16:USBInTd
 1060 01ee 1B78     		ldrb	r3, [r3, #0]	@ zero_extendqisi2
 1061 01f0 1046     		mov	r0, r2
 1062 01f2 1946     		mov	r1, r3
 1063 01f4 FFF7FEFF 		bl	CyDmaChSetInitialTd
 454:.\AudioControl.c ****             inBufIndex = count-remain;
 1064              		.loc 1 454 0
 1065 01f8 FA88     		ldrh	r2, [r7, #6]	@ movhi
 1066 01fa BB88     		ldrh	r3, [r7, #4]	@ movhi
 1067 01fc C3EB0203 		rsb	r3, r3, r2
 1068 0200 9AB2     		uxth	r2, r3
 1069 0202 40F20003 		movw	r3, #:lower16:inBufIndex
 1070 0206 C0F20003 		movt	r3, #:upper16:inBufIndex
 1071 020a 1A80     		strh	r2, [r3, #0]	@ movhi
 1072 020c 52E0     		b	.L25
 1073              	.L24:
 455:.\AudioControl.c ****         }
 456:.\AudioControl.c ****         else 
 457:.\AudioControl.c ****         {
 458:.\AudioControl.c ****             /* Single contiguous TD */
 459:.\AudioControl.c ****             CyDmaTdSetConfiguration(USBInTd[0], count, CY_DMA_DISABLE_TD, TD_INC_SRC_ADR | TD_INC_D
 1074              		.loc 1 459 0
 1075 020e 40F20003 		movw	r3, #:lower16:USBInTd
 1076 0212 C0F20003 		movt	r3, #:upper16:USBInTd
ARM GAS  C:\DOCUME~1\ADMINI~1\LOCALS~1\Temp\ccCo8Fey.s 			page 28


 1077 0216 1A78     		ldrb	r2, [r3, #0]	@ zero_extendqisi2
 1078 0218 FB88     		ldrh	r3, [r7, #6]
 1079 021a 1046     		mov	r0, r2
 1080 021c 1946     		mov	r1, r3
 1081 021e 4FF0FE02 		mov	r2, #254
 1082 0222 4FF00703 		mov	r3, #7
 1083 0226 FFF7FEFF 		bl	CyDmaTdSetConfiguration
 460:.\AudioControl.c ****             CyDmaTdSetAddress(USBInTd[0], LO16((uint32)inBuffer+inBufIndex), LO16((uint32) inRam));
 1084              		.loc 1 460 0
 1085 022a 40F20003 		movw	r3, #:lower16:USBInTd
 1086 022e C0F20003 		movt	r3, #:upper16:USBInTd
 1087 0232 1978     		ldrb	r1, [r3, #0]	@ zero_extendqisi2
 1088 0234 40F20003 		movw	r3, #:lower16:inBufIndex
 1089 0238 C0F20003 		movt	r3, #:upper16:inBufIndex
 1090 023c 1A88     		ldrh	r2, [r3, #0]
 1091 023e 40F20003 		movw	r3, #:lower16:inBuffer
 1092 0242 C0F20003 		movt	r3, #:upper16:inBuffer
 1093 0246 9BB2     		uxth	r3, r3
 1094 0248 1344     		add	r3, r2, r3
 1095 024a 9AB2     		uxth	r2, r3
 1096 024c 40F20003 		movw	r3, #:lower16:inRam
 1097 0250 C0F20003 		movt	r3, #:upper16:inRam
 1098 0254 9BB2     		uxth	r3, r3
 1099 0256 0846     		mov	r0, r1
 1100 0258 1146     		mov	r1, r2
 1101 025a 1A46     		mov	r2, r3
 1102 025c FFF7FEFF 		bl	CyDmaTdSetAddress
 461:.\AudioControl.c ****             
 462:.\AudioControl.c ****             CyDmaChSetInitialTd(USBInDmaChan, USBInTd[0]);
 1103              		.loc 1 462 0
 1104 0260 40F20003 		movw	r3, #:lower16:USBInDmaChan
 1105 0264 C0F20003 		movt	r3, #:upper16:USBInDmaChan
 1106 0268 1A78     		ldrb	r2, [r3, #0]	@ zero_extendqisi2
 1107 026a 40F20003 		movw	r3, #:lower16:USBInTd
 1108 026e C0F20003 		movt	r3, #:upper16:USBInTd
 1109 0272 1B78     		ldrb	r3, [r3, #0]	@ zero_extendqisi2
 1110 0274 1046     		mov	r0, r2
 1111 0276 1946     		mov	r1, r3
 1112 0278 FFF7FEFF 		bl	CyDmaChSetInitialTd
 463:.\AudioControl.c ****             inBufIndex += count;
 1113              		.loc 1 463 0
 1114 027c 40F20003 		movw	r3, #:lower16:inBufIndex
 1115 0280 C0F20003 		movt	r3, #:upper16:inBufIndex
 1116 0284 1A88     		ldrh	r2, [r3, #0]
 1117 0286 FB88     		ldrh	r3, [r7, #6]	@ movhi
 1118 0288 1344     		add	r3, r2, r3
 1119 028a 9AB2     		uxth	r2, r3
 1120 028c 40F20003 		movw	r3, #:lower16:inBufIndex
 1121 0290 C0F20003 		movt	r3, #:upper16:inBufIndex
 1122 0294 1A80     		strh	r2, [r3, #0]	@ movhi
 464:.\AudioControl.c ****             if (inBufIndex == sizeof(inBuffer)) 
 1123              		.loc 1 464 0
 1124 0296 40F20003 		movw	r3, #:lower16:inBufIndex
 1125 029a C0F20003 		movt	r3, #:upper16:inBufIndex
 1126 029e 1B88     		ldrh	r3, [r3, #0]
 1127 02a0 B3F5407F 		cmp	r3, #768
 1128 02a4 06D1     		bne	.L25
ARM GAS  C:\DOCUME~1\ADMINI~1\LOCALS~1\Temp\ccCo8Fey.s 			page 29


 465:.\AudioControl.c **** 			{
 466:.\AudioControl.c **** 				inBufIndex = 0;
 1129              		.loc 1 466 0
 1130 02a6 40F20003 		movw	r3, #:lower16:inBufIndex
 1131 02aa C0F20003 		movt	r3, #:upper16:inBufIndex
 1132 02ae 4FF00002 		mov	r2, #0
 1133 02b2 1A80     		strh	r2, [r3, #0]	@ movhi
 1134              	.L25:
 467:.\AudioControl.c **** 			}	
 468:.\AudioControl.c ****         }
 469:.\AudioControl.c ****     
 470:.\AudioControl.c ****         /* Enable the USB In DMA, don't update the Td as it progresses */
 471:.\AudioControl.c ****         CyDmaChEnable(USBInDmaChan, 1);
 1135              		.loc 1 471 0
 1136 02b4 40F20003 		movw	r3, #:lower16:USBInDmaChan
 1137 02b8 C0F20003 		movt	r3, #:upper16:USBInDmaChan
 1138 02bc 1B78     		ldrb	r3, [r3, #0]	@ zero_extendqisi2
 1139 02be 1846     		mov	r0, r3
 1140 02c0 4FF00101 		mov	r1, #1
 1141 02c4 FFF7FEFF 		bl	CyDmaChEnable
 472:.\AudioControl.c ****         CyDmaChSetRequest(USBInDmaChan, CPU_REQ); /* Start the DMA now */
 1142              		.loc 1 472 0
 1143 02c8 40F20003 		movw	r3, #:lower16:USBInDmaChan
 1144 02cc C0F20003 		movt	r3, #:upper16:USBInDmaChan
 1145 02d0 1B78     		ldrb	r3, [r3, #0]	@ zero_extendqisi2
 1146 02d2 1846     		mov	r0, r3
 1147 02d4 4FF00101 		mov	r1, #1
 1148 02d8 FFF7FEFF 		bl	CyDmaChSetRequest
 473:.\AudioControl.c **** 
 474:.\AudioControl.c ****         /* Sending of the data on the USB interface is enabled when the interrupt indicates that th
 475:.\AudioControl.c ****          * has been filled. */
 476:.\AudioControl.c ****         if (!inPlaying && inUsbCount >= IN_HALF) 
 1149              		.loc 1 476 0
 1150 02dc 40F20003 		movw	r3, #:lower16:inPlaying
 1151 02e0 C0F20003 		movt	r3, #:upper16:inPlaying
 1152 02e4 1B78     		ldrb	r3, [r3, #0]	@ zero_extendqisi2
 1153 02e6 002B     		cmp	r3, #0
 1154 02e8 3DD1     		bne	.L26
 1155 02ea 40F20003 		movw	r3, #:lower16:inUsbCount
 1156 02ee C0F20003 		movt	r3, #:upper16:inUsbCount
 1157 02f2 1A88     		ldrh	r2, [r3, #0]
 1158 02f4 40F27F13 		movw	r3, #383
 1159 02f8 9A42     		cmp	r2, r3
 1160 02fa 34D9     		bls	.L26
 477:.\AudioControl.c ****         {    
 478:.\AudioControl.c ****             inPlaying = 1;
 1161              		.loc 1 478 0
 1162 02fc 40F20003 		movw	r3, #:lower16:inPlaying
 1163 0300 C0F20003 		movt	r3, #:upper16:inPlaying
 1164 0304 4FF00102 		mov	r2, #1
 1165 0308 1A70     		strb	r2, [r3, #0]
 479:.\AudioControl.c ****                        
 480:.\AudioControl.c ****             /*Clear Any potential pending DMA requests before starting the DMA channel to transfer 
 481:.\AudioControl.c ****             CyDmaChSetRequest(rxDmaChan, CPU_TERM_CHAIN);
 1166              		.loc 1 481 0
 1167 030a 40F20003 		movw	r3, #:lower16:rxDmaChan
 1168 030e C0F20003 		movt	r3, #:upper16:rxDmaChan
ARM GAS  C:\DOCUME~1\ADMINI~1\LOCALS~1\Temp\ccCo8Fey.s 			page 30


 1169 0312 1B78     		ldrb	r3, [r3, #0]	@ zero_extendqisi2
 1170 0314 1846     		mov	r0, r3
 1171 0316 4FF00401 		mov	r1, #4
 1172 031a FFF7FEFF 		bl	CyDmaChSetRequest
 482:.\AudioControl.c ****             CyDmaChEnable(rxDmaChan, 1);
 1173              		.loc 1 482 0
 1174 031e 40F20003 		movw	r3, #:lower16:rxDmaChan
 1175 0322 C0F20003 		movt	r3, #:upper16:rxDmaChan
 1176 0326 1B78     		ldrb	r3, [r3, #0]	@ zero_extendqisi2
 1177 0328 1846     		mov	r0, r3
 1178 032a 4FF00101 		mov	r1, #1
 1179 032e FFF7FEFF 		bl	CyDmaChEnable
 483:.\AudioControl.c ****             
 484:.\AudioControl.c ****             /* Enable the Rx DMA, initialized back to the first TD */
 485:.\AudioControl.c ****             CyDmaChSetInitialTd(rxDmaChan, rxTd[0]);
 1180              		.loc 1 485 0
 1181 0332 40F20003 		movw	r3, #:lower16:rxDmaChan
 1182 0336 C0F20003 		movt	r3, #:upper16:rxDmaChan
 1183 033a 1A78     		ldrb	r2, [r3, #0]	@ zero_extendqisi2
 1184 033c 40F20003 		movw	r3, #:lower16:rxTd
 1185 0340 C0F20003 		movt	r3, #:upper16:rxTd
 1186 0344 1B78     		ldrb	r3, [r3, #0]	@ zero_extendqisi2
 1187 0346 1046     		mov	r0, r2
 1188 0348 1946     		mov	r1, r3
 1189 034a FFF7FEFF 		bl	CyDmaChSetInitialTd
 486:.\AudioControl.c ****             CyDmaChEnable(rxDmaChan, 1);
 1190              		.loc 1 486 0
 1191 034e 40F20003 		movw	r3, #:lower16:rxDmaChan
 1192 0352 C0F20003 		movt	r3, #:upper16:rxDmaChan
 1193 0356 1B78     		ldrb	r3, [r3, #0]	@ zero_extendqisi2
 1194 0358 1846     		mov	r0, r3
 1195 035a 4FF00101 		mov	r1, #1
 1196 035e FFF7FEFF 		bl	CyDmaChEnable
 487:.\AudioControl.c ****             
 488:.\AudioControl.c ****             #ifdef ENABLE_PDM
 489:.\AudioControl.c ****             Clock_CIC_Start(); /* This starts the CIC engine */
 1197              		.loc 1 489 0
 1198 0362 FFF7FEFF 		bl	Clock_CIC_Start
 1199              	.L26:
 490:.\AudioControl.c **** 			#endif
 491:.\AudioControl.c ****         }
 492:.\AudioControl.c ****         
 493:.\AudioControl.c ****         /* USER_CODE: [USB audio IN endpoint ISR] Placeholder for user code to know when an USB aud
 494:.\AudioControl.c ****          * sent to the USB host. This routine is called from an ISR, do not add time consuming task
 495:.\AudioControl.c ****          * routine so that other interrupts in the system can be serviced in a timely manner */
 496:.\AudioControl.c ****     }
 497:.\AudioControl.c **** }
 1200              		.loc 1 497 0
 1201 0366 07F10807 		add	r7, r7, #8
 1202 036a BD46     		mov	sp, r7
 1203 036c 80BD     		pop	{r7, pc}
 1204              		.cfi_endproc
 1205              	.LFE31:
 1206              		.size	ProcessAudioIn, .-ProcessAudioIn
 1207 036e 00BF     		.section	.text.Stop_I2S_Tx,"ax",%progbits
 1208              		.align	2
 1209              		.global	Stop_I2S_Tx
ARM GAS  C:\DOCUME~1\ADMINI~1\LOCALS~1\Temp\ccCo8Fey.s 			page 31


 1210              		.thumb
 1211              		.thumb_func
 1212              		.type	Stop_I2S_Tx, %function
 1213              	Stop_I2S_Tx:
 1214              	.LFB32:
 498:.\AudioControl.c **** #endif
 499:.\AudioControl.c **** 
 500:.\AudioControl.c **** /*******************************************************************************
 501:.\AudioControl.c **** * Function Name: Stop_I2S_Tx
 502:.\AudioControl.c **** ********************************************************************************
 503:.\AudioControl.c **** * Summary:
 504:.\AudioControl.c **** *        This function stops the I2S data transmission by disabling the I2S and 
 505:.\AudioControl.c **** *        transmit DMA.
 506:.\AudioControl.c **** *
 507:.\AudioControl.c **** * Parameters:
 508:.\AudioControl.c **** *  void
 509:.\AudioControl.c **** *
 510:.\AudioControl.c **** * Return:
 511:.\AudioControl.c **** *  void
 512:.\AudioControl.c **** *
 513:.\AudioControl.c **** *******************************************************************************/
 514:.\AudioControl.c **** void Stop_I2S_Tx(void) CYREENTRANT
 515:.\AudioControl.c **** {
 1215              		.loc 1 515 0
 1216              		.cfi_startproc
 1217              		@ args = 0, pretend = 0, frame = 0
 1218              		@ frame_needed = 1, uses_anonymous_args = 0
 1219 0000 80B5     		push	{r7, lr}
 1220              	.LCFI9:
 1221              		.cfi_def_cfa_offset 8
 1222 0002 00AF     		add	r7, sp, #0
 1223              		.cfi_offset 14, -4
 1224              		.cfi_offset 7, -8
 1225              	.LCFI10:
 1226              		.cfi_def_cfa_register 7
 516:.\AudioControl.c ****     #ifndef ENABLE_DIGITAL_AUDIO_IN_ONLY
 517:.\AudioControl.c ****     if(outPlaying)
 1227              		.loc 1 517 0
 1228 0004 40F20003 		movw	r3, #:lower16:outPlaying
 1229 0008 C0F20003 		movt	r3, #:upper16:outPlaying
 1230 000c 1B78     		ldrb	r3, [r3, #0]	@ zero_extendqisi2
 1231 000e 002B     		cmp	r3, #0
 1232 0010 33D0     		beq	.L29
 518:.\AudioControl.c ****     {       
 519:.\AudioControl.c ****         I2S_DisableTx(); /* Stop I2S Transmit (Mute), I2S output clocks still active */
 1233              		.loc 1 519 0
 1234 0012 FFF7FEFF 		bl	I2S_DisableTx
 520:.\AudioControl.c ****         
 521:.\AudioControl.c ****         CyDelayUs(20); /* Provide enough time for DMA to transfer the last audio samples completely
 1235              		.loc 1 521 0
 1236 0016 4FF01400 		mov	r0, #20
 1237 001a FFF7FEFF 		bl	CyDelayUs
 522:.\AudioControl.c ****         
 523:.\AudioControl.c ****         ByteSwap_Tx_Stop(); /* Terminate ByteSwap logic and hence DMA request line to TxDMA (SRAM t
 1238              		.loc 1 523 0
 1239 001e FFF7FEFF 		bl	ByteSwap_Tx_Stop
 524:.\AudioControl.c **** 
ARM GAS  C:\DOCUME~1\ADMINI~1\LOCALS~1\Temp\ccCo8Fey.s 			page 32


 525:.\AudioControl.c ****        
 526:.\AudioControl.c ****         CyDmaChDisable(txDmaChan); /* Stop/Disable DMA - Needed to reset to start of chain */
 1240              		.loc 1 526 0
 1241 0022 40F20003 		movw	r3, #:lower16:txDmaChan
 1242 0026 C0F20003 		movt	r3, #:upper16:txDmaChan
 1243 002a 1B78     		ldrb	r3, [r3, #0]	@ zero_extendqisi2
 1244 002c 1846     		mov	r0, r3
 1245 002e FFF7FEFF 		bl	CyDmaChDisable
 527:.\AudioControl.c ****         CyDmaChDisable(I2STxDMAChan); /* Disable ByteSwap to I2S data transfer DMA channel */
 1246              		.loc 1 527 0
 1247 0032 40F20003 		movw	r3, #:lower16:I2STxDMAChan
 1248 0036 C0F20003 		movt	r3, #:upper16:I2STxDMAChan
 1249 003a 1B78     		ldrb	r3, [r3, #0]	@ zero_extendqisi2
 1250 003c 1846     		mov	r0, r3
 1251 003e FFF7FEFF 		bl	CyDmaChDisable
 528:.\AudioControl.c ****         
 529:.\AudioControl.c ****                 
 530:.\AudioControl.c ****         resetTx = 1;
 1252              		.loc 1 530 0
 1253 0042 40F20003 		movw	r3, #:lower16:resetTx
 1254 0046 C0F20003 		movt	r3, #:upper16:resetTx
 1255 004a 4FF00102 		mov	r2, #1
 1256 004e 1A70     		strb	r2, [r3, #0]
 531:.\AudioControl.c ****         outLevel = 0;
 1257              		.loc 1 531 0
 1258 0050 40F20003 		movw	r3, #:lower16:outLevel
 1259 0054 C0F20003 		movt	r3, #:upper16:outLevel
 1260 0058 4FF00002 		mov	r2, #0
 1261 005c 1A80     		strh	r2, [r3, #0]	@ movhi
 532:.\AudioControl.c ****         outUsbShadow = 0;
 1262              		.loc 1 532 0
 1263 005e 40F20003 		movw	r3, #:lower16:outUsbShadow
 1264 0062 C0F20003 		movt	r3, #:upper16:outUsbShadow
 1265 0066 4FF00002 		mov	r2, #0
 1266 006a 1A80     		strh	r2, [r3, #0]	@ movhi
 533:.\AudioControl.c ****         outPlaying = 0;
 1267              		.loc 1 533 0
 1268 006c 40F20003 		movw	r3, #:lower16:outPlaying
 1269 0070 C0F20003 		movt	r3, #:upper16:outPlaying
 1270 0074 4FF00002 		mov	r2, #0
 1271 0078 1A70     		strb	r2, [r3, #0]
 1272              	.L29:
 534:.\AudioControl.c ****         
 535:.\AudioControl.c ****         /* USER_CODE: [USB audio playback stops] Placeholder for user code to shutdown any of the a
 536:.\AudioControl.c ****          * components. This routine is called when USB audio OUT endpoint stops streaming audio */
 537:.\AudioControl.c ****     }
 538:.\AudioControl.c ****     #endif
 539:.\AudioControl.c **** }
 1273              		.loc 1 539 0
 1274 007a 80BD     		pop	{r7, pc}
 1275              		.cfi_endproc
 1276              	.LFE32:
 1277              		.size	Stop_I2S_Tx, .-Stop_I2S_Tx
 1278              		.section	.text.Stop_PDM_InPath,"ax",%progbits
 1279              		.align	2
 1280              		.global	Stop_PDM_InPath
 1281              		.thumb
ARM GAS  C:\DOCUME~1\ADMINI~1\LOCALS~1\Temp\ccCo8Fey.s 			page 33


 1282              		.thumb_func
 1283              		.type	Stop_PDM_InPath, %function
 1284              	Stop_PDM_InPath:
 1285              	.LFB33:
 540:.\AudioControl.c **** 
 541:.\AudioControl.c **** /*******************************************************************************
 542:.\AudioControl.c **** * Function Name: Stop_PDM_InPath
 543:.\AudioControl.c **** ********************************************************************************
 544:.\AudioControl.c **** * Summary:
 545:.\AudioControl.c **** *        This function stops the PDM data reception by disabling the clock to the CIC and 
 546:.\AudioControl.c **** *        disabling the DMA TDs.
 547:.\AudioControl.c **** *
 548:.\AudioControl.c **** * Parameters:
 549:.\AudioControl.c **** *  void
 550:.\AudioControl.c **** *
 551:.\AudioControl.c **** * Return:
 552:.\AudioControl.c **** *  void
 553:.\AudioControl.c **** *
 554:.\AudioControl.c **** *******************************************************************************/
 555:.\AudioControl.c **** #ifndef ENABLE_DIGITAL_AUDIO_OUT_ONLY
 556:.\AudioControl.c **** void Stop_PDM_InPath(void) CYREENTRANT
 557:.\AudioControl.c **** {
 1286              		.loc 1 557 0
 1287              		.cfi_startproc
 1288              		@ args = 0, pretend = 0, frame = 0
 1289              		@ frame_needed = 1, uses_anonymous_args = 0
 1290 0000 80B5     		push	{r7, lr}
 1291              	.LCFI11:
 1292              		.cfi_def_cfa_offset 8
 1293 0002 00AF     		add	r7, sp, #0
 1294              		.cfi_offset 14, -4
 1295              		.cfi_offset 7, -8
 1296              	.LCFI12:
 1297              		.cfi_def_cfa_register 7
 558:.\AudioControl.c ****     if(inPlaying)
 1298              		.loc 1 558 0
 1299 0004 40F20003 		movw	r3, #:lower16:inPlaying
 1300 0008 C0F20003 		movt	r3, #:upper16:inPlaying
 1301 000c 1B78     		ldrb	r3, [r3, #0]	@ zero_extendqisi2
 1302 000e 002B     		cmp	r3, #0
 1303 0010 2ED0     		beq	.L32
 559:.\AudioControl.c ****     {
 560:.\AudioControl.c ****              
 561:.\AudioControl.c ****         /* Terminate TD chain & Stop/Disable DMA - Needed to reset to start of chain */
 562:.\AudioControl.c ****         CyDmaChSetRequest(rxDmaChan, CPU_TERM_CHAIN);
 1304              		.loc 1 562 0
 1305 0012 40F20003 		movw	r3, #:lower16:rxDmaChan
 1306 0016 C0F20003 		movt	r3, #:upper16:rxDmaChan
 1307 001a 1B78     		ldrb	r3, [r3, #0]	@ zero_extendqisi2
 1308 001c 1846     		mov	r0, r3
 1309 001e 4FF00401 		mov	r1, #4
 1310 0022 FFF7FEFF 		bl	CyDmaChSetRequest
 563:.\AudioControl.c ****                 
 564:.\AudioControl.c ****         resetRx = 1;
 1311              		.loc 1 564 0
 1312 0026 40F20003 		movw	r3, #:lower16:resetRx
 1313 002a C0F20003 		movt	r3, #:upper16:resetRx
ARM GAS  C:\DOCUME~1\ADMINI~1\LOCALS~1\Temp\ccCo8Fey.s 			page 34


 1314 002e 4FF00102 		mov	r2, #1
 1315 0032 1A70     		strb	r2, [r3, #0]
 565:.\AudioControl.c ****         
 566:.\AudioControl.c ****         clearInBuffer = 1;
 1316              		.loc 1 566 0
 1317 0034 40F20003 		movw	r3, #:lower16:clearInBuffer
 1318 0038 C0F20003 		movt	r3, #:upper16:clearInBuffer
 1319 003c 4FF00102 		mov	r2, #1
 1320 0040 1A70     		strb	r2, [r3, #0]
 567:.\AudioControl.c ****         
 568:.\AudioControl.c ****         inLevel = IN_BUFSIZE;
 1321              		.loc 1 568 0
 1322 0042 40F20003 		movw	r3, #:lower16:inLevel
 1323 0046 C0F20003 		movt	r3, #:upper16:inLevel
 1324 004a 4FF44072 		mov	r2, #768
 1325 004e 1A80     		strh	r2, [r3, #0]	@ movhi
 569:.\AudioControl.c ****         inUsbShadow = 0;    
 1326              		.loc 1 569 0
 1327 0050 40F20003 		movw	r3, #:lower16:inUsbShadow
 1328 0054 C0F20003 		movt	r3, #:upper16:inUsbShadow
 1329 0058 4FF00002 		mov	r2, #0
 1330 005c 1A80     		strh	r2, [r3, #0]	@ movhi
 570:.\AudioControl.c ****         inPlaying = 0;
 1331              		.loc 1 570 0
 1332 005e 40F20003 		movw	r3, #:lower16:inPlaying
 1333 0062 C0F20003 		movt	r3, #:upper16:inPlaying
 1334 0066 4FF00002 		mov	r2, #0
 1335 006a 1A70     		strb	r2, [r3, #0]
 571:.\AudioControl.c ****         
 572:.\AudioControl.c ****         #ifdef ENABLE_PDM
 573:.\AudioControl.c ****         Clock_CIC_Stop(); /* This shuts down the CIC engine completely */
 1336              		.loc 1 573 0
 1337 006c FFF7FEFF 		bl	Clock_CIC_Stop
 1338              	.L32:
 574:.\AudioControl.c **** 		#endif
 575:.\AudioControl.c ****         
 576:.\AudioControl.c ****         /* USER_CODE: [USB audio recording stops] Placeholder for user code to shutdown any of the 
 577:.\AudioControl.c ****          * components. This routine is called when USB audio IN endpoint stops requesting audio IN 
 578:.\AudioControl.c ****     }
 579:.\AudioControl.c **** }
 1339              		.loc 1 579 0
 1340 0070 80BD     		pop	{r7, pc}
 1341              		.cfi_endproc
 1342              	.LFE33:
 1343              		.size	Stop_PDM_InPath, .-Stop_PDM_InPath
 1344 0072 00BF     		.section	.text.SetClockRate,"ax",%progbits
 1345              		.align	2
 1346              		.global	SetClockRate
 1347              		.thumb
 1348              		.thumb_func
 1349              		.type	SetClockRate, %function
 1350              	SetClockRate:
 1351              	.LFB34:
 580:.\AudioControl.c **** #endif
 581:.\AudioControl.c **** 
 582:.\AudioControl.c **** /*******************************************************************************
 583:.\AudioControl.c **** * Function Name: SetClockRate
ARM GAS  C:\DOCUME~1\ADMINI~1\LOCALS~1\Temp\ccCo8Fey.s 			page 35


 584:.\AudioControl.c **** ********************************************************************************
 585:.\AudioControl.c **** * Summary:
 586:.\AudioControl.c **** *        This function changes the audio clocking to generate clocks for a desired 
 587:.\AudioControl.c **** *        sample rate.
 588:.\AudioControl.c **** *
 589:.\AudioControl.c **** * Parameters:
 590:.\AudioControl.c **** *  newRate: audio sample rate from list in AudioClkGen component which is to be set
 591:.\AudioControl.c **** *
 592:.\AudioControl.c **** * Return:
 593:.\AudioControl.c **** *  void
 594:.\AudioControl.c **** *
 595:.\AudioControl.c **** *******************************************************************************/
 596:.\AudioControl.c **** void SetClockRate(uint8 newRate) CYREENTRANT
 597:.\AudioControl.c **** {
 1352              		.loc 1 597 0
 1353              		.cfi_startproc
 1354              		@ args = 0, pretend = 0, frame = 8
 1355              		@ frame_needed = 1, uses_anonymous_args = 0
 1356 0000 80B5     		push	{r7, lr}
 1357              	.LCFI13:
 1358              		.cfi_def_cfa_offset 8
 1359 0002 82B0     		sub	sp, sp, #8
 1360              	.LCFI14:
 1361              		.cfi_def_cfa_offset 16
 1362 0004 00AF     		add	r7, sp, #0
 1363              		.cfi_offset 14, -4
 1364              		.cfi_offset 7, -8
 1365              	.LCFI15:
 1366              		.cfi_def_cfa_register 7
 1367 0006 0346     		mov	r3, r0
 1368 0008 FB71     		strb	r3, [r7, #7]
 598:.\AudioControl.c ****   
 599:.\AudioControl.c ****         
 600:.\AudioControl.c ****     /* Stop I2S and PDM path before changing PLL clock */
 601:.\AudioControl.c ****     #ifndef ENABLE_DIGITAL_AUDIO_IN_ONLY
 602:.\AudioControl.c **** 	Stop_I2S_Tx();
 1369              		.loc 1 602 0
 1370 000a FFF7FEFF 		bl	Stop_I2S_Tx
 603:.\AudioControl.c ****     #endif 
 604:.\AudioControl.c **** 	
 605:.\AudioControl.c ****     #ifndef ENABLE_DIGITAL_AUDIO_OUT_ONLY
 606:.\AudioControl.c **** 	Stop_PDM_InPath();
 1371              		.loc 1 606 0
 1372 000e FFF7FEFF 		bl	Stop_PDM_InPath
 607:.\AudioControl.c **** 	#endif
 608:.\AudioControl.c ****     
 609:.\AudioControl.c ****     CyMasterClk_SetSource(CY_MASTER_SOURCE_IMO);
 1373              		.loc 1 609 0
 1374 0012 4FF00000 		mov	r0, #0
 1375 0016 FFF7FEFF 		bl	CyMasterClk_SetSource
 610:.\AudioControl.c **** 	CyDelayFreq(DELAY_FREQ_PARAM_VALUE_IMO);
 1376              		.loc 1 610 0
 1377 001a 43F20060 		movw	r0, #:lower16:24000000
 1378 001e C0F26E10 		movt	r0, #:upper16:24000000
 1379 0022 FFF7FEFF 		bl	CyDelayFreq
 611:.\AudioControl.c ****     rate = newRate;
 1380              		.loc 1 611 0
ARM GAS  C:\DOCUME~1\ADMINI~1\LOCALS~1\Temp\ccCo8Fey.s 			page 36


 1381 0026 40F20003 		movw	r3, #:lower16:rate
 1382 002a C0F20003 		movt	r3, #:upper16:rate
 1383 002e FA79     		ldrb	r2, [r7, #7]
 1384 0030 1A70     		strb	r2, [r3, #0]
 612:.\AudioControl.c **** 
 613:.\AudioControl.c ****     AudioClkGen_SetAudioRate(newRate);
 1385              		.loc 1 613 0
 1386 0032 FB79     		ldrb	r3, [r7, #7]	@ zero_extendqisi2
 1387 0034 1846     		mov	r0, r3
 1388 0036 FFF7FEFF 		bl	AudioClkGen_SetAudioRate
 614:.\AudioControl.c **** 	
 615:.\AudioControl.c **** 	
 616:.\AudioControl.c **** 	switch(newRate)
 1389              		.loc 1 616 0
 1390 003a FB79     		ldrb	r3, [r7, #7]	@ zero_extendqisi2
 1391 003c 012B     		cmp	r3, #1
 1392 003e 12D0     		beq	.L36
 1393 0040 022B     		cmp	r3, #2
 1394 0042 02D0     		beq	.L37
 1395 0044 002B     		cmp	r3, #0
 1396 0046 07D0     		beq	.L35
 1397 0048 13E0     		b	.L34
 1398              	.L37:
 617:.\AudioControl.c ****     {
 618:.\AudioControl.c ****         case AudioClkGen_RATE_32KHZ:
 619:.\AudioControl.c ****             #ifdef ENABLE_PDM
 620:.\AudioControl.c ****             Clock_CIC_SetDividerRegister(DIVIDER_32K_SR, 0);
 1399              		.loc 1 620 0
 1400 004a 4FF00200 		mov	r0, #2
 1401 004e 4FF00001 		mov	r1, #0
 1402 0052 FFF7FEFF 		bl	Clock_CIC_SetDividerRegister
 621:.\AudioControl.c ****             #endif
 622:.\AudioControl.c ****             
 623:.\AudioControl.c ****         break;
 1403              		.loc 1 623 0
 1404 0056 0CE0     		b	.L34
 1405              	.L35:
 624:.\AudioControl.c ****         
 625:.\AudioControl.c ****         case AudioClkGen_RATE_48KHZ:
 626:.\AudioControl.c ****             #ifdef ENABLE_PDM
 627:.\AudioControl.c ****             Clock_CIC_SetDividerRegister(DIVIDER_44K_48K_SR, 0);
 1406              		.loc 1 627 0
 1407 0058 4FF00100 		mov	r0, #1
 1408 005c 4FF00001 		mov	r1, #0
 1409 0060 FFF7FEFF 		bl	Clock_CIC_SetDividerRegister
 628:.\AudioControl.c ****             #endif
 629:.\AudioControl.c ****             
 630:.\AudioControl.c ****         break;
 1410              		.loc 1 630 0
 1411 0064 05E0     		b	.L34
 1412              	.L36:
 631:.\AudioControl.c ****         
 632:.\AudioControl.c ****         case AudioClkGen_RATE_44KHZ:
 633:.\AudioControl.c ****             #ifdef ENABLE_PDM
 634:.\AudioControl.c ****             Clock_CIC_SetDividerRegister(DIVIDER_44K_48K_SR, 0);
 1413              		.loc 1 634 0
 1414 0066 4FF00100 		mov	r0, #1
ARM GAS  C:\DOCUME~1\ADMINI~1\LOCALS~1\Temp\ccCo8Fey.s 			page 37


 1415 006a 4FF00001 		mov	r1, #0
 1416 006e FFF7FEFF 		bl	Clock_CIC_SetDividerRegister
 1417              	.L34:
 635:.\AudioControl.c ****             #endif
 636:.\AudioControl.c ****             
 637:.\AudioControl.c ****         break;
 638:.\AudioControl.c ****     }
 639:.\AudioControl.c **** 	
 640:.\AudioControl.c ****     CyMasterClk_SetSource(CY_MASTER_SOURCE_PLL);
 1418              		.loc 1 640 0
 1419 0072 4FF00100 		mov	r0, #1
 1420 0076 FFF7FEFF 		bl	CyMasterClk_SetSource
 641:.\AudioControl.c ****     CyDelayFreq(DELAY_FREQ_PARAM_VALUE_PLL);
 1421              		.loc 1 641 0
 1422 007a 4AF24050 		movw	r0, #:lower16:45000000
 1423 007e C0F2AE20 		movt	r0, #:upper16:45000000
 1424 0082 FFF7FEFF 		bl	CyDelayFreq
 642:.\AudioControl.c **** 	  
 643:.\AudioControl.c ****     /* flag to indicate audio clock active */
 644:.\AudioControl.c ****     audioClkConfigured = TRUE;
 1425              		.loc 1 644 0
 1426 0086 40F20003 		movw	r3, #:lower16:audioClkConfigured
 1427 008a C0F20003 		movt	r3, #:upper16:audioClkConfigured
 1428 008e 4FF00102 		mov	r2, #1
 1429 0092 1A70     		strb	r2, [r3, #0]
 645:.\AudioControl.c ****     
 646:.\AudioControl.c ****     /* CODEC is initialized when sampling frequency change request is received from the USB host (t
 647:.\AudioControl.c ****      * change event triggers the call to this routine), if the host is fast and requests for audio 
 648:.\AudioControl.c ****      * after sampling frequency change request, then the CODEC interface wouldn't be ready for appr
 649:.\AudioControl.c ****      * (20ms is specific to CS42L51) and the initial few milliseconds of audio IN data will be zero
 650:.\AudioControl.c ****      * also be initialized by the user at the start of the program at the cost of little more incre
 651:.\AudioControl.c ****      * consumption */
 652:.\AudioControl.c ****     InitCirrusCodec();
 1430              		.loc 1 652 0
 1431 0094 FFF7FEFF 		bl	InitCirrusCodec
 653:.\AudioControl.c ****     
 654:.\AudioControl.c **** 	/* USER_CODE:[CODEC] If different codec is used than the Cirrus codec (CS42L51), then
 655:.\AudioControl.c **** 	 * Comment out the function InitCirrusCodec().
 656:.\AudioControl.c **** 	 * Add your code for codec initialization in place of InitCirrusCodec(). 
 657:.\AudioControl.c **** 	 * Update the UpdateCodecVolume() and UpdateCodecAttenuation() functions as required by new codec.
 658:.\AudioControl.c **** 	 * Update the codec.h file with the I2C address of codec and the register addresses of the new cod
 659:.\AudioControl.c **** 	
 660:.\AudioControl.c **** 
 661:.\AudioControl.c **** 	/* USER_CODE: [Active mode begins]Add your code for initializing any external peripherals which re
 662:.\AudioControl.c ****      * to be in active mode (where all the audio components and clocks are turned on). The system i
 663:.\AudioControl.c ****      * maximum operating frequency at this time. This routine initializes the codec registers with 
 664:.\AudioControl.c ****      * when the system is in active mode for the first time. Refer to "Active Mode Clock 44.1/48KHz
 665:.\AudioControl.c ****      * for system clock details. Firmware is in "Active Mode" at this point in code until asked to 
 666:.\AudioControl.c ****      * by changing audio streaming interface. The sampling frequency to which the current system cl
 667:.\AudioControl.c ****      * configured depends on the parameter to this API (newRate)*/
 668:.\AudioControl.c **** }
 1432              		.loc 1 668 0
 1433 0098 07F10807 		add	r7, r7, #8
 1434 009c BD46     		mov	sp, r7
 1435 009e 80BD     		pop	{r7, pc}
 1436              		.cfi_endproc
 1437              	.LFE34:
ARM GAS  C:\DOCUME~1\ADMINI~1\LOCALS~1\Temp\ccCo8Fey.s 			page 38


 1438              		.size	SetClockRate, .-SetClockRate
 1439              		.section	.text.StartAudioComponents,"ax",%progbits
 1440              		.align	2
 1441              		.global	StartAudioComponents
 1442              		.thumb
 1443              		.thumb_func
 1444              		.type	StartAudioComponents, %function
 1445              	StartAudioComponents:
 1446              	.LFB35:
 669:.\AudioControl.c ****  
 670:.\AudioControl.c **** /*******************************************************************************
 671:.\AudioControl.c **** * Function Name: StartAudioComponents
 672:.\AudioControl.c **** ********************************************************************************
 673:.\AudioControl.c **** * Summary:
 674:.\AudioControl.c **** *       This function starts components for the digital audio signal path
 675:.\AudioControl.c **** *
 676:.\AudioControl.c **** * Parameters:
 677:.\AudioControl.c **** *  void
 678:.\AudioControl.c **** *
 679:.\AudioControl.c **** * Return:
 680:.\AudioControl.c **** *  void
 681:.\AudioControl.c **** *
 682:.\AudioControl.c **** *******************************************************************************/
 683:.\AudioControl.c **** void StartAudioComponents(void)
 684:.\AudioControl.c **** {
 1447              		.loc 1 684 0
 1448              		.cfi_startproc
 1449              		@ args = 0, pretend = 0, frame = 0
 1450              		@ frame_needed = 1, uses_anonymous_args = 0
 1451 0000 80B5     		push	{r7, lr}
 1452              	.LCFI16:
 1453              		.cfi_def_cfa_offset 8
 1454 0002 00AF     		add	r7, sp, #0
 1455              		.cfi_offset 14, -4
 1456              		.cfi_offset 7, -8
 1457              	.LCFI17:
 1458              		.cfi_def_cfa_register 7
 685:.\AudioControl.c **** //	CyPins_SetPin(PSOC_CODEC_PWR_0); /* Enable this line if PSOC_CODEC_PWR pin in TopDesign is enabl
 686:.\AudioControl.c **** 
 687:.\AudioControl.c **** 	/* Change drive mode of I2S pins to Strong Drive at the start of audio streaming */
 688:.\AudioControl.c **** 	#ifdef I2S_PIN_DRIVE_MODE_CHANGE_IN_IDLE_MODE		
 689:.\AudioControl.c **** 		#ifndef MCLK_ALWAYS_ENABLED
 690:.\AudioControl.c ****         PSOC_I2S_MCLK_SetDriveMode(PSOC_I2S_MCLK_DM_STRONG);
 1459              		.loc 1 690 0
 1460 0004 4FF00C00 		mov	r0, #12
 1461 0008 FFF7FEFF 		bl	PSOC_I2S_MCLK_SetDriveMode
 691:.\AudioControl.c **** 		#endif 
 692:.\AudioControl.c ****         PSOC_I2S_SDTO_SetDriveMode(PSOC_I2S_SDTO_DM_STRONG);
 1462              		.loc 1 692 0
 1463 000c 4FF00C00 		mov	r0, #12
 1464 0010 FFF7FEFF 		bl	PSOC_I2S_SDTO_SetDriveMode
 693:.\AudioControl.c ****         PSOC_I2S_SCLK_SetDriveMode(PSOC_I2S_SCLK_DM_STRONG);
 1465              		.loc 1 693 0
 1466 0014 4FF00C00 		mov	r0, #12
 1467 0018 FFF7FEFF 		bl	PSOC_I2S_SCLK_SetDriveMode
 694:.\AudioControl.c ****         PSOC_I2S_LRCLK_SetDriveMode(PSOC_I2S_LRCLK_DM_STRONG);
 1468              		.loc 1 694 0
ARM GAS  C:\DOCUME~1\ADMINI~1\LOCALS~1\Temp\ccCo8Fey.s 			page 39


 1469 001c 4FF00C00 		mov	r0, #12
 1470 0020 FFF7FEFF 		bl	PSOC_I2S_LRCLK_SetDriveMode
 695:.\AudioControl.c ****     #endif
 696:.\AudioControl.c **** 	
 697:.\AudioControl.c **** 	if(!CyPins_ReadPin(PSOC_CODEC_RST_0))
 1471              		.loc 1 697 0
 1472 0024 45F21E03 		movw	r3, #:lower16:1073762334
 1473 0028 C4F20003 		movt	r3, #:upper16:1073762334
 1474 002c 1B78     		ldrb	r3, [r3, #0]
 1475 002e DBB2     		uxtb	r3, r3
 1476 0030 03F01003 		and	r3, r3, #16
 1477 0034 002B     		cmp	r3, #0
 1478 0036 0DD1     		bne	.L40
 698:.\AudioControl.c ****         {
 699:.\AudioControl.c ****             CyPins_SetPin(PSOC_CODEC_RST_0);   /* Turn on CODEC by releasing reset */
 1479              		.loc 1 699 0
 1480 0038 45F21E03 		movw	r3, #:lower16:1073762334
 1481 003c C4F20003 		movt	r3, #:upper16:1073762334
 1482 0040 45F21E02 		movw	r2, #:lower16:1073762334
 1483 0044 C4F20002 		movt	r2, #:upper16:1073762334
 1484 0048 1278     		ldrb	r2, [r2, #0]
 1485 004a D2B2     		uxtb	r2, r2
 1486 004c 42F00102 		orr	r2, r2, #1
 1487 0050 D2B2     		uxtb	r2, r2
 1488 0052 1A70     		strb	r2, [r3, #0]
 1489              	.L40:
 700:.\AudioControl.c ****         }
 701:.\AudioControl.c **** 	
 702:.\AudioControl.c **** 	#ifdef CODEC_I2C_SUPPORTED 
 703:.\AudioControl.c ****     	I2C_Master_CLKDIV1_REG = I2C_DIVIDER_400KHZ_OPERATION;
 704:.\AudioControl.c **** 	#endif
 705:.\AudioControl.c **** 		    
 706:.\AudioControl.c ****     I2S_Start();
 1490              		.loc 1 706 0
 1491 0054 FFF7FEFF 		bl	I2S_Start
 707:.\AudioControl.c **** 
 708:.\AudioControl.c ****     
 709:.\AudioControl.c ****     /* USER_CODE: Add your custom code to enable components which should be active when Audio strea
 710:.\AudioControl.c ****      * is active. PLL is shutdown until SetClockRate API is called on receiving a sampling frequenc
 711:.\AudioControl.c **** 	 * from the USB host */
 712:.\AudioControl.c **** }
 1492              		.loc 1 712 0
 1493 0058 80BD     		pop	{r7, pc}
 1494              		.cfi_endproc
 1495              	.LFE35:
 1496              		.size	StartAudioComponents, .-StartAudioComponents
 1497 005a 00BF     		.section	.text.StopAudioComponents,"ax",%progbits
 1498              		.align	2
 1499              		.global	StopAudioComponents
 1500              		.thumb
 1501              		.thumb_func
 1502              		.type	StopAudioComponents, %function
 1503              	StopAudioComponents:
 1504              	.LFB36:
 713:.\AudioControl.c **** 
 714:.\AudioControl.c **** /*******************************************************************************
 715:.\AudioControl.c **** * Function Name: StopAudioComponents
ARM GAS  C:\DOCUME~1\ADMINI~1\LOCALS~1\Temp\ccCo8Fey.s 			page 40


 716:.\AudioControl.c **** ********************************************************************************
 717:.\AudioControl.c **** * Summary:
 718:.\AudioControl.c **** *       This function stops components for the digital audio signal path,
 719:.\AudioControl.c **** *        including the crystal and PLL.  This puts them in low-power mode.
 720:.\AudioControl.c **** *
 721:.\AudioControl.c **** * Parameters:
 722:.\AudioControl.c **** *  void
 723:.\AudioControl.c **** *
 724:.\AudioControl.c **** * Return:
 725:.\AudioControl.c **** *  void
 726:.\AudioControl.c **** *
 727:.\AudioControl.c **** *******************************************************************************/
 728:.\AudioControl.c **** void StopAudioComponents(void)
 729:.\AudioControl.c **** {
 1505              		.loc 1 729 0
 1506              		.cfi_startproc
 1507              		@ args = 0, pretend = 0, frame = 0
 1508              		@ frame_needed = 1, uses_anonymous_args = 0
 1509 0000 80B5     		push	{r7, lr}
 1510              	.LCFI18:
 1511              		.cfi_def_cfa_offset 8
 1512 0002 00AF     		add	r7, sp, #0
 1513              		.cfi_offset 14, -4
 1514              		.cfi_offset 7, -8
 1515              	.LCFI19:
 1516              		.cfi_def_cfa_register 7
 730:.\AudioControl.c **** 	if(codecInit)
 731:.\AudioControl.c ****     {
 732:.\AudioControl.c **** 	    #ifdef CODEC_I2C_SUPPORTED 
 733:.\AudioControl.c **** 		/* Mute the DAC output before configuring the clocks */
 734:.\AudioControl.c ****         CodecWrite.address = CODEC_DAC_OUTPUT_CTRL_REGISTER;
 735:.\AudioControl.c ****         CodecWrite.value = 0x73;
 736:.\AudioControl.c ****         WriteToSlave(CODEC_I2C_ADDRESS, &CodecWrite.address, sizeof(CodecWrite));
 737:.\AudioControl.c ****         
 738:.\AudioControl.c ****         /* shutdown the power to the codec */
 739:.\AudioControl.c ****         CodecWrite.address = CODEC_POWER_CTRL_REGISTER;
 740:.\AudioControl.c ****         CodecWrite.value = 0x01; /* Power down the codec */
 741:.\AudioControl.c ****         WriteToSlave(CODEC_I2C_ADDRESS, &CodecWrite.address, sizeof(CodecWrite));
 742:.\AudioControl.c ****         
 743:.\AudioControl.c ****         CyDelay(5);
 744:.\AudioControl.c ****         CyPins_ClearPin(PSOC_CODEC_RST_0); /* Hold CODEC in reset */
 745:.\AudioControl.c **** 		codecInit = FALSE;
 746:.\AudioControl.c **** 		#endif	
 747:.\AudioControl.c **** 	}
 748:.\AudioControl.c **** 		
 749:.\AudioControl.c ****     /* Change the Master clock source to IMO and turn off PLL*/
 750:.\AudioControl.c ****     CyMasterClk_SetSource(CY_MASTER_SOURCE_IMO);
 1517              		.loc 1 750 0
 1518 0004 4FF00000 		mov	r0, #0
 1519 0008 FFF7FEFF 		bl	CyMasterClk_SetSource
 751:.\AudioControl.c **** 	CyDelayFreq(DELAY_FREQ_PARAM_VALUE_IMO);
 1520              		.loc 1 751 0
 1521 000c 43F20060 		movw	r0, #:lower16:24000000
 1522 0010 C0F26E10 		movt	r0, #:upper16:24000000
 1523 0014 FFF7FEFF 		bl	CyDelayFreq
 752:.\AudioControl.c ****     CyDelayUs(100);
 1524              		.loc 1 752 0
ARM GAS  C:\DOCUME~1\ADMINI~1\LOCALS~1\Temp\ccCo8Fey.s 			page 41


 1525 0018 4FF06400 		mov	r0, #100
 1526 001c FFF7FEFF 		bl	CyDelayUs
 753:.\AudioControl.c ****     
 754:.\AudioControl.c **** 	#ifndef MCLK_ALWAYS_ENABLED
 755:.\AudioControl.c ****     CyPLL_OUT_Stop(); 
 1527              		.loc 1 755 0
 1528 0020 FFF7FEFF 		bl	CyPLL_OUT_Stop
 756:.\AudioControl.c **** 	#endif 
 757:.\AudioControl.c ****     
 758:.\AudioControl.c ****     I2S_Stop();
 1529              		.loc 1 758 0
 1530 0024 FFF7FEFF 		bl	I2S_Stop
 759:.\AudioControl.c **** 	
 760:.\AudioControl.c **** 	/* Changing the I2S pins drive mode to HiZ  */
 761:.\AudioControl.c **** 	#ifdef I2S_PIN_DRIVE_MODE_CHANGE_IN_IDLE_MODE	
 762:.\AudioControl.c **** 		#ifndef MCLK_ALWAYS_ENABLED
 763:.\AudioControl.c ****         PSOC_I2S_MCLK_SetDriveMode(PSOC_I2S_MCLK_DM_DIG_HIZ);
 1531              		.loc 1 763 0
 1532 0028 4FF00200 		mov	r0, #2
 1533 002c FFF7FEFF 		bl	PSOC_I2S_MCLK_SetDriveMode
 764:.\AudioControl.c **** 		#endif 
 765:.\AudioControl.c ****         PSOC_I2S_SDTO_SetDriveMode(PSOC_I2S_SDTO_DM_DIG_HIZ);
 1534              		.loc 1 765 0
 1535 0030 4FF00200 		mov	r0, #2
 1536 0034 FFF7FEFF 		bl	PSOC_I2S_SDTO_SetDriveMode
 766:.\AudioControl.c ****         PSOC_I2S_SCLK_SetDriveMode(PSOC_I2S_SCLK_DM_DIG_HIZ);
 1537              		.loc 1 766 0
 1538 0038 4FF00200 		mov	r0, #2
 1539 003c FFF7FEFF 		bl	PSOC_I2S_SCLK_SetDriveMode
 767:.\AudioControl.c ****         PSOC_I2S_LRCLK_SetDriveMode(PSOC_I2S_LRCLK_DM_DIG_HIZ);
 1540              		.loc 1 767 0
 1541 0040 4FF00200 		mov	r0, #2
 1542 0044 FFF7FEFF 		bl	PSOC_I2S_LRCLK_SetDriveMode
 768:.\AudioControl.c ****     #endif
 769:.\AudioControl.c ****        
 770:.\AudioControl.c **** 	#ifdef CODEC_I2C_SUPPORTED 
 771:.\AudioControl.c ****     /* Slow down I2C operation speed when CPU is running in idle mode */
 772:.\AudioControl.c ****     I2C_Master_CLKDIV1_REG = I2C_DIVIDER_25KHZ_OPERATION;
 773:.\AudioControl.c **** 	#endif
 774:.\AudioControl.c **** 	
 775:.\AudioControl.c **** 	//CyPins_ClearPin(PSOC_CODEC_PWR_0);	/* Uncomment this line only if PSOC_CODEC_PWR pin in TopDesig
 776:.\AudioControl.c **** 	
 777:.\AudioControl.c **** 	codecInit = FALSE;                 /* Reset CODEC initialization flag */
 1543              		.loc 1 777 0
 1544 0048 40F20003 		movw	r3, #:lower16:codecInit
 1545 004c C0F20003 		movt	r3, #:upper16:codecInit
 1546 0050 4FF00002 		mov	r2, #0
 1547 0054 1A70     		strb	r2, [r3, #0]
 778:.\AudioControl.c ****     audioClkConfigured = FALSE;        /* Audio clock reset flag */
 1548              		.loc 1 778 0
 1549 0056 40F20003 		movw	r3, #:lower16:audioClkConfigured
 1550 005a C0F20003 		movt	r3, #:upper16:audioClkConfigured
 1551 005e 4FF00002 		mov	r2, #0
 1552 0062 1A70     		strb	r2, [r3, #0]
 779:.\AudioControl.c ****     setRate = FREQUENCY_NOT_SET;       /* clear the current audio sampling rate set value */
 1553              		.loc 1 779 0
 1554 0064 40F20003 		movw	r3, #:lower16:setRate
ARM GAS  C:\DOCUME~1\ADMINI~1\LOCALS~1\Temp\ccCo8Fey.s 			page 42


 1555 0068 C0F20003 		movt	r3, #:upper16:setRate
 1556 006c 4FF0FF32 		mov	r2, #-1
 1557 0070 1A70     		strb	r2, [r3, #0]
 780:.\AudioControl.c ****     
 781:.\AudioControl.c ****     /* USER_CODE: Add your custom code to shutdown components or hardware blocks which need not be 
 782:.\AudioControl.c ****      * or MIDI interface is inactive. All the audio components, DMAs and clocks are shutdown at thi
 783:.\AudioControl.c ****      * and the system will remain in this mode until audio interface is made active or StartAudioCo
 784:.\AudioControl.c ****      * SetClockRate APIs are called by user code. Refer to "Idle Mode Clock Info" schematic page fo
 785:.\AudioControl.c **** 	 * on system clock in this mode */
 786:.\AudioControl.c **** }
 1558              		.loc 1 786 0
 1559 0072 80BD     		pop	{r7, pc}
 1560              		.cfi_endproc
 1561              	.LFE36:
 1562              		.size	StopAudioComponents, .-StopAudioComponents
 1563              		.section	.text.HandleSamplingFrequencyChangeRequest,"ax",%progbits
 1564              		.align	2
 1565              		.global	HandleSamplingFrequencyChangeRequest
 1566              		.thumb
 1567              		.thumb_func
 1568              		.type	HandleSamplingFrequencyChangeRequest, %function
 1569              	HandleSamplingFrequencyChangeRequest:
 1570              	.LFB37:
 787:.\AudioControl.c **** 
 788:.\AudioControl.c **** /*******************************************************************************
 789:.\AudioControl.c **** * Function Name: HandleSamplingFrequencyChangeRequest
 790:.\AudioControl.c **** ********************************************************************************
 791:.\AudioControl.c **** * Summary:
 792:.\AudioControl.c **** *       This function processes the sampling frequency change request from USB
 793:.\AudioControl.c **** *       host and updates the accessory playback sampling frequency accordingly
 794:.\AudioControl.c **** *
 795:.\AudioControl.c **** * Parameters:
 796:.\AudioControl.c **** *  void
 797:.\AudioControl.c **** *
 798:.\AudioControl.c **** * Return:
 799:.\AudioControl.c **** *  void
 800:.\AudioControl.c **** *
 801:.\AudioControl.c **** *******************************************************************************/
 802:.\AudioControl.c **** void HandleSamplingFrequencyChangeRequest(void)
 803:.\AudioControl.c **** {
 1571              		.loc 1 803 0
 1572              		.cfi_startproc
 1573              		@ args = 0, pretend = 0, frame = 8
 1574              		@ frame_needed = 1, uses_anonymous_args = 0
 1575 0000 80B5     		push	{r7, lr}
 1576              	.LCFI20:
 1577              		.cfi_def_cfa_offset 8
 1578 0002 82B0     		sub	sp, sp, #8
 1579              	.LCFI21:
 1580              		.cfi_def_cfa_offset 16
 1581 0004 00AF     		add	r7, sp, #0
 1582              		.cfi_offset 14, -4
 1583              		.cfi_offset 7, -8
 1584              	.LCFI22:
 1585              		.cfi_def_cfa_register 7
 804:.\AudioControl.c ****     /* USBFS_frequencyChanged is set by the USB component when a setup token for Sampling frequency
 805:.\AudioControl.c ****      * It takes a sometime for the host to actually send the Out token containing the updated sampl
ARM GAS  C:\DOCUME~1\ADMINI~1\LOCALS~1\Temp\ccCo8Fey.s 			page 43


 806:.\AudioControl.c ****      * Wait for USBFS_transferState to be equal to USBFS_TRANS_STATE_IDLE to make sure the updated 
 807:.\AudioControl.c ****      * is used for setting audio clocks */
 808:.\AudioControl.c ****      
 809:.\AudioControl.c ****     if(USBFS_TRANS_STATE_IDLE == USBFS_transferState && USBFS_frequencyChanged)
 1586              		.loc 1 809 0
 1587 0006 40F20003 		movw	r3, #:lower16:USBFS_transferState
 1588 000a C0F20003 		movt	r3, #:upper16:USBFS_transferState
 1589 000e 1B78     		ldrb	r3, [r3, #0]
 1590 0010 DBB2     		uxtb	r3, r3
 1591 0012 002B     		cmp	r3, #0
 1592 0014 40F0CA80 		bne	.L54
 1593 0018 40F20003 		movw	r3, #:lower16:USBFS_frequencyChanged
 1594 001c C0F20003 		movt	r3, #:upper16:USBFS_frequencyChanged
 1595 0020 1B78     		ldrb	r3, [r3, #0]
 1596 0022 DBB2     		uxtb	r3, r3
 1597 0024 002B     		cmp	r3, #0
 1598 0026 00F0C180 		beq	.L54
 810:.\AudioControl.c ****     {
 811:.\AudioControl.c ****         #ifndef ENABLE_DIGITAL_AUDIO_OUT_ONLY
 812:.\AudioControl.c ****         #ifndef ENABLE_DIGITAL_AUDIO_IN_ONLY
 813:.\AudioControl.c ****         if((!inPlaying && AUDIO_OUT_ENDPOINT == USBFS_frequencyChanged) || 
 1599              		.loc 1 813 0
 1600 002a 40F20003 		movw	r3, #:lower16:inPlaying
 1601 002e C0F20003 		movt	r3, #:upper16:inPlaying
 1602 0032 1B78     		ldrb	r3, [r3, #0]	@ zero_extendqisi2
 1603 0034 002B     		cmp	r3, #0
 1604 0036 07D1     		bne	.L46
 1605 0038 40F20003 		movw	r3, #:lower16:USBFS_frequencyChanged
 1606 003c C0F20003 		movt	r3, #:upper16:USBFS_frequencyChanged
 1607 0040 1B78     		ldrb	r3, [r3, #0]
 1608 0042 DBB2     		uxtb	r3, r3
 1609 0044 012B     		cmp	r3, #1
 1610 0046 10D0     		beq	.L47
 1611              	.L46:
 814:.\AudioControl.c ****             (!outPlaying && AUDIO_IN_ENDPOINT == USBFS_frequencyChanged ))
 1612              		.loc 1 814 0
 1613 0048 40F20003 		movw	r3, #:lower16:outPlaying
 1614 004c C0F20003 		movt	r3, #:upper16:outPlaying
 1615 0050 1B78     		ldrb	r3, [r3, #0]	@ zero_extendqisi2
 1616              		.loc 1 813 0
 1617 0052 002B     		cmp	r3, #0
 1618 0054 40F0A380 		bne	.L48
 1619              		.loc 1 814 0
 1620 0058 40F20003 		movw	r3, #:lower16:USBFS_frequencyChanged
 1621 005c C0F20003 		movt	r3, #:upper16:USBFS_frequencyChanged
 1622 0060 1B78     		ldrb	r3, [r3, #0]
 1623 0062 DBB2     		uxtb	r3, r3
 1624              		.loc 1 813 0
 1625 0064 022B     		cmp	r3, #2
 1626 0066 40F09A80 		bne	.L48
 1627              	.L47:
 1628              	.LBB2:
 815:.\AudioControl.c ****         #endif            
 816:.\AudioControl.c ****         #endif 
 817:.\AudioControl.c ****         {
 818:.\AudioControl.c ****             uint32 newFrequency;
 819:.\AudioControl.c ****             uint8 newRate = RATE_48KHZ;
ARM GAS  C:\DOCUME~1\ADMINI~1\LOCALS~1\Temp\ccCo8Fey.s 			page 44


 1629              		.loc 1 819 0
 1630 006a 4FF00003 		mov	r3, #0
 1631 006e FB71     		strb	r3, [r7, #7]
 820:.\AudioControl.c ****             
 821:.\AudioControl.c ****             newFrequency = (((uint32)USBFS_currentSampleFrequency[USBFS_frequencyChanged][2] << 16)
 1632              		.loc 1 821 0
 1633 0070 40F20003 		movw	r3, #:lower16:USBFS_frequencyChanged
 1634 0074 C0F20003 		movt	r3, #:upper16:USBFS_frequencyChanged
 1635 0078 1B78     		ldrb	r3, [r3, #0]
 1636 007a DBB2     		uxtb	r3, r3
 1637 007c 1946     		mov	r1, r3
 1638 007e 40F20002 		movw	r2, #:lower16:USBFS_currentSampleFrequency
 1639 0082 C0F20002 		movt	r2, #:upper16:USBFS_currentSampleFrequency
 1640 0086 0B46     		mov	r3, r1
 1641 0088 4FEA4303 		lsl	r3, r3, #1
 1642 008c 0B44     		add	r3, r3, r1
 1643 008e 1344     		add	r3, r3, r2
 1644 0090 03F10203 		add	r3, r3, #2
 1645 0094 1B78     		ldrb	r3, [r3, #0]
 1646 0096 DBB2     		uxtb	r3, r3
 1647 0098 4FEA0340 		lsl	r0, r3, #16
 822:.\AudioControl.c ****                               ((uint32)USBFS_currentSampleFrequency[USBFS_frequencyChanged][1] << 8
 1648              		.loc 1 822 0
 1649 009c 40F20003 		movw	r3, #:lower16:USBFS_frequencyChanged
 1650 00a0 C0F20003 		movt	r3, #:upper16:USBFS_frequencyChanged
 1651 00a4 1B78     		ldrb	r3, [r3, #0]
 1652 00a6 DBB2     		uxtb	r3, r3
 1653 00a8 1946     		mov	r1, r3
 1654 00aa 40F20002 		movw	r2, #:lower16:USBFS_currentSampleFrequency
 1655 00ae C0F20002 		movt	r2, #:upper16:USBFS_currentSampleFrequency
 1656 00b2 0B46     		mov	r3, r1
 1657 00b4 4FEA4303 		lsl	r3, r3, #1
 1658 00b8 0B44     		add	r3, r3, r1
 1659 00ba 1344     		add	r3, r3, r2
 1660 00bc 03F10103 		add	r3, r3, #1
 1661 00c0 1B78     		ldrb	r3, [r3, #0]
 1662 00c2 DBB2     		uxtb	r3, r3
 1663 00c4 4FEA0323 		lsl	r3, r3, #8
 1664 00c8 40EA0300 		orr	r0, r0, r3
 823:.\AudioControl.c ****                               ((uint32)USBFS_currentSampleFrequency[USBFS_frequencyChanged][0]));
 1665              		.loc 1 823 0
 1666 00cc 40F20003 		movw	r3, #:lower16:USBFS_frequencyChanged
 1667 00d0 C0F20003 		movt	r3, #:upper16:USBFS_frequencyChanged
 1668 00d4 1B78     		ldrb	r3, [r3, #0]
 1669 00d6 DBB2     		uxtb	r3, r3
 1670 00d8 1946     		mov	r1, r3
 1671 00da 40F20002 		movw	r2, #:lower16:USBFS_currentSampleFrequency
 1672 00de C0F20002 		movt	r2, #:upper16:USBFS_currentSampleFrequency
 1673 00e2 0B46     		mov	r3, r1
 1674 00e4 4FEA4303 		lsl	r3, r3, #1
 1675 00e8 0B44     		add	r3, r3, r1
 1676 00ea 1344     		add	r3, r3, r2
 1677 00ec 1B78     		ldrb	r3, [r3, #0]
 1678 00ee DBB2     		uxtb	r3, r3
 1679              		.loc 1 821 0
 1680 00f0 40EA0303 		orr	r3, r0, r3
 1681 00f4 3B60     		str	r3, [r7, #0]
ARM GAS  C:\DOCUME~1\ADMINI~1\LOCALS~1\Temp\ccCo8Fey.s 			page 45


 824:.\AudioControl.c **** 
 825:.\AudioControl.c **** 			USBFS_frequencyChanged = 0;
 1682              		.loc 1 825 0
 1683 00f6 40F20003 		movw	r3, #:lower16:USBFS_frequencyChanged
 1684 00fa C0F20003 		movt	r3, #:upper16:USBFS_frequencyChanged
 1685 00fe 4FF00002 		mov	r2, #0
 1686 0102 1A70     		strb	r2, [r3, #0]
 826:.\AudioControl.c **** 			
 827:.\AudioControl.c ****             if(SAMPLING_RATE_48KHZ == newFrequency)
 1687              		.loc 1 827 0
 1688 0104 3A68     		ldr	r2, [r7, #0]
 1689 0106 4BF68033 		movw	r3, #48000
 1690 010a 9A42     		cmp	r2, r3
 1691 010c 03D1     		bne	.L49
 828:.\AudioControl.c ****             {
 829:.\AudioControl.c ****                 newRate = RATE_48KHZ;
 1692              		.loc 1 829 0
 1693 010e 4FF00003 		mov	r3, #0
 1694 0112 FB71     		strb	r3, [r7, #7]
 1695 0114 0FE0     		b	.L50
 1696              	.L49:
 830:.\AudioControl.c ****             }
 831:.\AudioControl.c ****             else if(SAMPLING_RATE_44KHZ == newFrequency)
 1697              		.loc 1 831 0
 1698 0116 3A68     		ldr	r2, [r7, #0]
 1699 0118 4AF64443 		movw	r3, #44100
 1700 011c 9A42     		cmp	r2, r3
 1701 011e 03D1     		bne	.L51
 832:.\AudioControl.c ****             {
 833:.\AudioControl.c ****                 newRate = RATE_44KHZ;
 1702              		.loc 1 833 0
 1703 0120 4FF00103 		mov	r3, #1
 1704 0124 FB71     		strb	r3, [r7, #7]
 1705 0126 06E0     		b	.L50
 1706              	.L51:
 834:.\AudioControl.c ****             }
 835:.\AudioControl.c ****             else if(SAMPLING_RATE_32KHZ == newFrequency)
 1707              		.loc 1 835 0
 1708 0128 3B68     		ldr	r3, [r7, #0]
 1709 012a B3F5FA4F 		cmp	r3, #32000
 1710 012e 02D1     		bne	.L50
 836:.\AudioControl.c ****             {
 837:.\AudioControl.c ****                 newRate = RATE_32KHZ;
 1711              		.loc 1 837 0
 1712 0130 4FF00203 		mov	r3, #2
 1713 0134 FB71     		strb	r3, [r7, #7]
 1714              	.L50:
 838:.\AudioControl.c ****             }
 839:.\AudioControl.c ****                 
 840:.\AudioControl.c ****             if(setRate != newRate)
 1715              		.loc 1 840 0
 1716 0136 40F20003 		movw	r3, #:lower16:setRate
 1717 013a C0F20003 		movt	r3, #:upper16:setRate
 1718 013e 1B78     		ldrb	r3, [r3, #0]	@ zero_extendqisi2
 1719 0140 FA79     		ldrb	r2, [r7, #7]	@ zero_extendqisi2
 1720 0142 9A42     		cmp	r2, r3
 1721 0144 23D0     		beq	.L52
ARM GAS  C:\DOCUME~1\ADMINI~1\LOCALS~1\Temp\ccCo8Fey.s 			page 46


 841:.\AudioControl.c ****             {   
 842:.\AudioControl.c ****                 setRate = newRate;
 1722              		.loc 1 842 0
 1723 0146 40F20003 		movw	r3, #:lower16:setRate
 1724 014a C0F20003 		movt	r3, #:upper16:setRate
 1725 014e FA79     		ldrb	r2, [r7, #7]
 1726 0150 1A70     		strb	r2, [r3, #0]
 843:.\AudioControl.c ****                 
 844:.\AudioControl.c ****                 if(lowPowerIdle)
 1727              		.loc 1 844 0
 1728 0152 40F20003 		movw	r3, #:lower16:lowPowerIdle
 1729 0156 C0F20003 		movt	r3, #:upper16:lowPowerIdle
 1730 015a 1B78     		ldrb	r3, [r3, #0]	@ zero_extendqisi2
 1731 015c 002B     		cmp	r3, #0
 1732 015e 07D0     		beq	.L53
 845:.\AudioControl.c ****                 {
 846:.\AudioControl.c ****                     rateChangedWhileInactive = TRUE;
 1733              		.loc 1 846 0
 1734 0160 40F20003 		movw	r3, #:lower16:rateChangedWhileInactive
 1735 0164 C0F20003 		movt	r3, #:upper16:rateChangedWhileInactive
 1736 0168 4FF00102 		mov	r2, #1
 1737 016c 1A70     		strb	r2, [r3, #0]
 1738 016e 0EE0     		b	.L52
 1739              	.L53:
 847:.\AudioControl.c ****                 }
 848:.\AudioControl.c ****                 else
 849:.\AudioControl.c ****                 {
 850:.\AudioControl.c ****                     SetClockRate(setRate);
 1740              		.loc 1 850 0
 1741 0170 40F20003 		movw	r3, #:lower16:setRate
 1742 0174 C0F20003 		movt	r3, #:upper16:setRate
 1743 0178 1B78     		ldrb	r3, [r3, #0]	@ zero_extendqisi2
 1744 017a 1846     		mov	r0, r3
 1745 017c FFF7FEFF 		bl	SetClockRate
 851:.\AudioControl.c ****                     rateChangedWhileInactive = FALSE;              
 1746              		.loc 1 851 0
 1747 0180 40F20003 		movw	r3, #:lower16:rateChangedWhileInactive
 1748 0184 C0F20003 		movt	r3, #:upper16:rateChangedWhileInactive
 1749 0188 4FF00002 		mov	r2, #0
 1750 018c 1A70     		strb	r2, [r3, #0]
 1751              	.L52:
 852:.\AudioControl.c ****                 }
 853:.\AudioControl.c ****             }
 854:.\AudioControl.c ****             
 855:.\AudioControl.c ****             clockSwitchTimer = FALSE;
 1752              		.loc 1 855 0
 1753 018e 40F20003 		movw	r3, #:lower16:clockSwitchTimer
 1754 0192 C0F20003 		movt	r3, #:upper16:clockSwitchTimer
 1755 0196 4FF00002 		mov	r2, #0
 1756 019a 1A70     		strb	r2, [r3, #0]
 1757              	.LBE2:
 1758              		.loc 1 813 0
 1759 019c 06E0     		b	.L54
 1760              	.L48:
 856:.\AudioControl.c ****         }
 857:.\AudioControl.c ****         #ifndef ENABLE_DIGITAL_AUDIO_OUT_ONLY
 858:.\AudioControl.c ****         #ifndef ENABLE_DIGITAL_AUDIO_IN_ONLY
ARM GAS  C:\DOCUME~1\ADMINI~1\LOCALS~1\Temp\ccCo8Fey.s 			page 47


 859:.\AudioControl.c ****         else
 860:.\AudioControl.c ****         {
 861:.\AudioControl.c ****             /* If another frequency change request is received when one of the audio stream is stil
 862:.\AudioControl.c ****              * frequency change request */
 863:.\AudioControl.c ****             USBFS_frequencyChanged = 0;
 1761              		.loc 1 863 0
 1762 019e 40F20003 		movw	r3, #:lower16:USBFS_frequencyChanged
 1763 01a2 C0F20003 		movt	r3, #:upper16:USBFS_frequencyChanged
 1764 01a6 4FF00002 		mov	r2, #0
 1765 01aa 1A70     		strb	r2, [r3, #0]
 1766              	.L54:
 864:.\AudioControl.c ****         }
 865:.\AudioControl.c ****         #endif
 866:.\AudioControl.c ****         #endif
 867:.\AudioControl.c ****     }
 868:.\AudioControl.c ****         
 869:.\AudioControl.c **** }
 1767              		.loc 1 869 0
 1768 01ac 07F10807 		add	r7, r7, #8
 1769 01b0 BD46     		mov	sp, r7
 1770 01b2 80BD     		pop	{r7, pc}
 1771              		.cfi_endproc
 1772              	.LFE37:
 1773              		.size	HandleSamplingFrequencyChangeRequest, .-HandleSamplingFrequencyChangeRequest
 1774              		.section	.text.HandleDigitalAudioLowPowerMode,"ax",%progbits
 1775              		.align	2
 1776              		.global	HandleDigitalAudioLowPowerMode
 1777              		.thumb
 1778              		.thumb_func
 1779              		.type	HandleDigitalAudioLowPowerMode, %function
 1780              	HandleDigitalAudioLowPowerMode:
 1781              	.LFB38:
 870:.\AudioControl.c **** 
 871:.\AudioControl.c **** /*******************************************************************************
 872:.\AudioControl.c **** * Function Name: HandleDigitalAudioLowPowerMode
 873:.\AudioControl.c **** ********************************************************************************
 874:.\AudioControl.c **** * Summary:
 875:.\AudioControl.c **** *       This function switches between low and high power modes for digital audio 
 876:.\AudioControl.c **** *       depending on whether the audio stream from USB host is active 
 877:.\AudioControl.c **** *       or not.
 878:.\AudioControl.c **** *
 879:.\AudioControl.c **** * Parameters:
 880:.\AudioControl.c **** *  void
 881:.\AudioControl.c **** *
 882:.\AudioControl.c **** * Return:
 883:.\AudioControl.c **** *  void
 884:.\AudioControl.c **** *
 885:.\AudioControl.c **** *******************************************************************************/
 886:.\AudioControl.c **** void HandleDigitalAudioLowPowerMode(void)
 887:.\AudioControl.c **** {
 1782              		.loc 1 887 0
 1783              		.cfi_startproc
 1784              		@ args = 0, pretend = 0, frame = 0
 1785              		@ frame_needed = 1, uses_anonymous_args = 0
 1786 0000 80B5     		push	{r7, lr}
 1787              	.LCFI23:
 1788              		.cfi_def_cfa_offset 8
ARM GAS  C:\DOCUME~1\ADMINI~1\LOCALS~1\Temp\ccCo8Fey.s 			page 48


 1789 0002 00AF     		add	r7, sp, #0
 1790              		.cfi_offset 14, -4
 1791              		.cfi_offset 7, -8
 1792              	.LCFI24:
 1793              		.cfi_def_cfa_register 7
 888:.\AudioControl.c ****     /* Handle STOP/START of audio stream */
 889:.\AudioControl.c ****     if(FALSE == lowPowerIdle)
 1794              		.loc 1 889 0
 1795 0004 40F20003 		movw	r3, #:lower16:lowPowerIdle
 1796 0008 C0F20003 		movt	r3, #:upper16:lowPowerIdle
 1797 000c 1B78     		ldrb	r3, [r3, #0]	@ zero_extendqisi2
 1798 000e 002B     		cmp	r3, #0
 1799 0010 48D1     		bne	.L56
 890:.\AudioControl.c ****     {                        
 891:.\AudioControl.c ****         if(FALSE == lowPowerIdle && IS_USB_AUDIO_INTERFACE_NOT_ACTIVE())
 1800              		.loc 1 891 0
 1801 0012 40F20003 		movw	r3, #:lower16:lowPowerIdle
 1802 0016 C0F20003 		movt	r3, #:upper16:lowPowerIdle
 1803 001a 1B78     		ldrb	r3, [r3, #0]	@ zero_extendqisi2
 1804 001c 002B     		cmp	r3, #0
 1805 001e 41D1     		bne	.L56
 1806 0020 40F20003 		movw	r3, #:lower16:USBFS_interfaceSetting
 1807 0024 C0F20003 		movt	r3, #:upper16:USBFS_interfaceSetting
 1808 0028 5B78     		ldrb	r3, [r3, #1]
 1809 002a DBB2     		uxtb	r3, r3
 1810 002c 002B     		cmp	r3, #0
 1811 002e 39D1     		bne	.L56
 1812 0030 40F20003 		movw	r3, #:lower16:USBFS_interfaceSetting
 1813 0034 C0F20003 		movt	r3, #:upper16:USBFS_interfaceSetting
 1814 0038 9B78     		ldrb	r3, [r3, #2]
 1815 003a DBB2     		uxtb	r3, r3
 1816 003c 002B     		cmp	r3, #0
 1817 003e 31D1     		bne	.L56
 892:.\AudioControl.c ****         {
 893:.\AudioControl.c ****         	if(0 == clockSwitchTimer)
 1818              		.loc 1 893 0
 1819 0040 40F20003 		movw	r3, #:lower16:clockSwitchTimer
 1820 0044 C0F20003 		movt	r3, #:upper16:clockSwitchTimer
 1821 0048 1B78     		ldrb	r3, [r3, #0]	@ zero_extendqisi2
 1822 004a 002B     		cmp	r3, #0
 1823 004c 06D1     		bne	.L57
 894:.\AudioControl.c ****             {
 895:.\AudioControl.c ****                 clockSwitchTimer = CLOCK_SWITCHING_TIMEOUT;
 1824              		.loc 1 895 0
 1825 004e 40F20003 		movw	r3, #:lower16:clockSwitchTimer
 1826 0052 C0F20003 		movt	r3, #:upper16:clockSwitchTimer
 1827 0056 4FF06402 		mov	r2, #100
 1828 005a 1A70     		strb	r2, [r3, #0]
 1829              	.L57:
 896:.\AudioControl.c ****             }
 897:.\AudioControl.c ****             /* Both Audio Interfaces are inactive for more than 500ms -> enter low power idle mode 
 898:.\AudioControl.c ****             if(CLOCK_SWITCH_TIMED_OUT == clockSwitchTimer)
 1830              		.loc 1 898 0
 1831 005c 40F20003 		movw	r3, #:lower16:clockSwitchTimer
 1832 0060 C0F20003 		movt	r3, #:upper16:clockSwitchTimer
 1833 0064 1B78     		ldrb	r3, [r3, #0]	@ zero_extendqisi2
 1834 0066 012B     		cmp	r3, #1
ARM GAS  C:\DOCUME~1\ADMINI~1\LOCALS~1\Temp\ccCo8Fey.s 			page 49


 1835 0068 1CD1     		bne	.L56
 899:.\AudioControl.c ****             {
 900:.\AudioControl.c ****                 lowPowerIdle = TRUE;
 1836              		.loc 1 900 0
 1837 006a 40F20003 		movw	r3, #:lower16:lowPowerIdle
 1838 006e C0F20003 		movt	r3, #:upper16:lowPowerIdle
 1839 0072 4FF00102 		mov	r2, #1
 1840 0076 1A70     		strb	r2, [r3, #0]
 901:.\AudioControl.c **** 				StopAudioComponents();            /* Changes to 24 MHz IMO for USB */
 1841              		.loc 1 901 0
 1842 0078 FFF7FEFF 		bl	StopAudioComponents
 902:.\AudioControl.c **** 				CyPins_ClearPin(PSOC_CODEC_RST_0); /* Hold CODEC in reset */
 1843              		.loc 1 902 0
 1844 007c 45F21E03 		movw	r3, #:lower16:1073762334
 1845 0080 C4F20003 		movt	r3, #:upper16:1073762334
 1846 0084 45F21E02 		movw	r2, #:lower16:1073762334
 1847 0088 C4F20002 		movt	r2, #:upper16:1073762334
 1848 008c 1278     		ldrb	r2, [r2, #0]
 1849 008e D2B2     		uxtb	r2, r2
 1850 0090 02F0FE02 		and	r2, r2, #254
 1851 0094 1A70     		strb	r2, [r3, #0]
 903:.\AudioControl.c ****                 codecInit = FALSE;
 1852              		.loc 1 903 0
 1853 0096 40F20003 		movw	r3, #:lower16:codecInit
 1854 009a C0F20003 		movt	r3, #:upper16:codecInit
 1855 009e 4FF00002 		mov	r2, #0
 1856 00a2 1A70     		strb	r2, [r3, #0]
 1857              	.L56:
 904:.\AudioControl.c ****             }
 905:.\AudioControl.c ****         }
 906:.\AudioControl.c ****         
 907:.\AudioControl.c ****         /* USER_CODE: [High -> Low power transition] Placeholder for shutting down external hardwar
 908:.\AudioControl.c ****          * components before going into low power mode */
 909:.\AudioControl.c ****     }
 910:.\AudioControl.c ****     
 911:.\AudioControl.c ****     /* Start the Audio path components only if the audio streaming interface is active and the syst
 912:.\AudioControl.c **** 	 * power mode */
 913:.\AudioControl.c ****     if(TRUE == lowPowerIdle)
 1858              		.loc 1 913 0
 1859 00a4 40F20003 		movw	r3, #:lower16:lowPowerIdle
 1860 00a8 C0F20003 		movt	r3, #:upper16:lowPowerIdle
 1861 00ac 1B78     		ldrb	r3, [r3, #0]	@ zero_extendqisi2
 1862 00ae 012B     		cmp	r3, #1
 1863 00b0 43D1     		bne	.L60
 914:.\AudioControl.c ****     {
 915:.\AudioControl.c ****         /* Audio streaming is active on atleast one interface */
 916:.\AudioControl.c ****         if(TRUE == lowPowerIdle && !(IS_USB_AUDIO_INTERFACE_NOT_ACTIVE()) )
 1864              		.loc 1 916 0
 1865 00b2 40F20003 		movw	r3, #:lower16:lowPowerIdle
 1866 00b6 C0F20003 		movt	r3, #:upper16:lowPowerIdle
 1867 00ba 1B78     		ldrb	r3, [r3, #0]	@ zero_extendqisi2
 1868 00bc 012B     		cmp	r3, #1
 1869 00be 3CD1     		bne	.L60
 1870 00c0 40F20003 		movw	r3, #:lower16:USBFS_interfaceSetting
 1871 00c4 C0F20003 		movt	r3, #:upper16:USBFS_interfaceSetting
 1872 00c8 5B78     		ldrb	r3, [r3, #1]
 1873 00ca DBB2     		uxtb	r3, r3
ARM GAS  C:\DOCUME~1\ADMINI~1\LOCALS~1\Temp\ccCo8Fey.s 			page 50


 1874 00cc 002B     		cmp	r3, #0
 1875 00ce 07D1     		bne	.L59
 1876 00d0 40F20003 		movw	r3, #:lower16:USBFS_interfaceSetting
 1877 00d4 C0F20003 		movt	r3, #:upper16:USBFS_interfaceSetting
 1878 00d8 9B78     		ldrb	r3, [r3, #2]
 1879 00da DBB2     		uxtb	r3, r3
 1880 00dc 002B     		cmp	r3, #0
 1881 00de 2CD0     		beq	.L60
 1882              	.L59:
 917:.\AudioControl.c ****         {
 918:.\AudioControl.c ****             lowPowerIdle = FALSE;
 1883              		.loc 1 918 0
 1884 00e0 40F20003 		movw	r3, #:lower16:lowPowerIdle
 1885 00e4 C0F20003 		movt	r3, #:upper16:lowPowerIdle
 1886 00e8 4FF00002 		mov	r2, #0
 1887 00ec 1A70     		strb	r2, [r3, #0]
 919:.\AudioControl.c **** 			StartAudioComponents();        	   /* Turn on PLL */
 1888              		.loc 1 919 0
 1889 00ee FFF7FEFF 		bl	StartAudioComponents
 920:.\AudioControl.c **** 			CyPins_SetPin(PSOC_CODEC_RST_0);   /* Turn on CODEC by releasing reset */
 1890              		.loc 1 920 0
 1891 00f2 45F21E03 		movw	r3, #:lower16:1073762334
 1892 00f6 C4F20003 		movt	r3, #:upper16:1073762334
 1893 00fa 45F21E02 		movw	r2, #:lower16:1073762334
 1894 00fe C4F20002 		movt	r2, #:upper16:1073762334
 1895 0102 1278     		ldrb	r2, [r2, #0]
 1896 0104 D2B2     		uxtb	r2, r2
 1897 0106 42F00102 		orr	r2, r2, #1
 1898 010a D2B2     		uxtb	r2, r2
 1899 010c 1A70     		strb	r2, [r3, #0]
 921:.\AudioControl.c ****             
 922:.\AudioControl.c ****             if(rateChangedWhileInactive)
 1900              		.loc 1 922 0
 1901 010e 40F20003 		movw	r3, #:lower16:rateChangedWhileInactive
 1902 0112 C0F20003 		movt	r3, #:upper16:rateChangedWhileInactive
 1903 0116 1B78     		ldrb	r3, [r3, #0]	@ zero_extendqisi2
 1904 0118 002B     		cmp	r3, #0
 1905 011a 0ED0     		beq	.L60
 923:.\AudioControl.c ****             {
 924:.\AudioControl.c **** 				SetClockRate(setRate);
 1906              		.loc 1 924 0
 1907 011c 40F20003 		movw	r3, #:lower16:setRate
 1908 0120 C0F20003 		movt	r3, #:upper16:setRate
 1909 0124 1B78     		ldrb	r3, [r3, #0]	@ zero_extendqisi2
 1910 0126 1846     		mov	r0, r3
 1911 0128 FFF7FEFF 		bl	SetClockRate
 925:.\AudioControl.c ****                 rateChangedWhileInactive = FALSE;
 1912              		.loc 1 925 0
 1913 012c 40F20003 		movw	r3, #:lower16:rateChangedWhileInactive
 1914 0130 C0F20003 		movt	r3, #:upper16:rateChangedWhileInactive
 1915 0134 4FF00002 		mov	r2, #0
 1916 0138 1A70     		strb	r2, [r3, #0]
 1917              	.L60:
 926:.\AudioControl.c ****             }
 927:.\AudioControl.c ****         }
 928:.\AudioControl.c ****       
 929:.\AudioControl.c ****         /* USER_CODE: [Low -> High power transition] Placeholder for turning on external hardware b
ARM GAS  C:\DOCUME~1\ADMINI~1\LOCALS~1\Temp\ccCo8Fey.s 			page 51


 930:.\AudioControl.c ****          * components before transitioning into high power mode */
 931:.\AudioControl.c ****     }
 932:.\AudioControl.c **** }
 1918              		.loc 1 932 0
 1919 013a 80BD     		pop	{r7, pc}
 1920              		.cfi_endproc
 1921              	.LFE38:
 1922              		.size	HandleDigitalAudioLowPowerMode, .-HandleDigitalAudioLowPowerMode
 1923              		.section	.text.UpdateAudioStatusUI,"ax",%progbits
 1924              		.align	2
 1925              		.global	UpdateAudioStatusUI
 1926              		.thumb
 1927              		.thumb_func
 1928              		.type	UpdateAudioStatusUI, %function
 1929              	UpdateAudioStatusUI:
 1930              	.LFB39:
 933:.\AudioControl.c **** 
 934:.\AudioControl.c **** /*******************************************************************************
 935:.\AudioControl.c **** * Function Name: UpdateAudioStatusUI
 936:.\AudioControl.c **** ********************************************************************************
 937:.\AudioControl.c **** * Summary:
 938:.\AudioControl.c **** *       Updates the Audio playback status on the LEDs
 939:.\AudioControl.c **** *
 940:.\AudioControl.c **** * Parameters:
 941:.\AudioControl.c **** *  void
 942:.\AudioControl.c **** *
 943:.\AudioControl.c **** * Return:
 944:.\AudioControl.c **** *  void
 945:.\AudioControl.c **** *
 946:.\AudioControl.c **** *******************************************************************************/
 947:.\AudioControl.c **** void UpdateAudioStatusUI(void)
 948:.\AudioControl.c **** {
 1931              		.loc 1 948 0
 1932              		.cfi_startproc
 1933              		@ args = 0, pretend = 0, frame = 0
 1934              		@ frame_needed = 1, uses_anonymous_args = 0
 1935              		@ link register save eliminated.
 1936 0000 80B4     		push	{r7}
 1937              	.LCFI25:
 1938              		.cfi_def_cfa_offset 4
 1939 0002 00AF     		add	r7, sp, #0
 1940              		.cfi_offset 7, -4
 1941              	.LCFI26:
 1942              		.cfi_def_cfa_register 7
 949:.\AudioControl.c ****    	/* Turn on the STATUS LED  when Audio Out or Audio In stream is active */
 950:.\AudioControl.c **** 
 951:.\AudioControl.c **** 	if ( ZERO
 952:.\AudioControl.c **** 		 #ifndef ENABLE_DIGITAL_AUDIO_OUT_ONLY
 953:.\AudioControl.c **** 		 || inPlaying 
 954:.\AudioControl.c **** 		 #endif
 955:.\AudioControl.c **** 		 #ifndef ENABLE_DIGITAL_AUDIO_IN_ONLY
 956:.\AudioControl.c **** 		 || outPlaying 
 1943              		.loc 1 956 0
 1944 0004 40F20003 		movw	r3, #:lower16:inPlaying
 1945 0008 C0F20003 		movt	r3, #:upper16:inPlaying
 1946 000c 1B78     		ldrb	r3, [r3, #0]	@ zero_extendqisi2
 1947              		.loc 1 951 0
ARM GAS  C:\DOCUME~1\ADMINI~1\LOCALS~1\Temp\ccCo8Fey.s 			page 52


 1948 000e 002B     		cmp	r3, #0
 1949 0010 06D1     		bne	.L62
 957:.\AudioControl.c **** 		 #endif
 958:.\AudioControl.c **** 		 )
 1950              		.loc 1 958 0
 1951 0012 40F20003 		movw	r3, #:lower16:outPlaying
 1952 0016 C0F20003 		movt	r3, #:upper16:outPlaying
 1953 001a 1B78     		ldrb	r3, [r3, #0]	@ zero_extendqisi2
 1954              		.loc 1 951 0
 1955 001c 002B     		cmp	r3, #0
 1956 001e 0DD0     		beq	.L63
 1957              	.L62:
 959:.\AudioControl.c **** 	{
 960:.\AudioControl.c **** 		CyPins_ClearPin(PSOC_STATUS_LED_0); /* Turn on the Status LED */
 1958              		.loc 1 960 0
 1959 0020 45F21903 		movw	r3, #:lower16:1073762329
 1960 0024 C4F20003 		movt	r3, #:upper16:1073762329
 1961 0028 45F21902 		movw	r2, #:lower16:1073762329
 1962 002c C4F20002 		movt	r2, #:upper16:1073762329
 1963 0030 1278     		ldrb	r2, [r2, #0]
 1964 0032 D2B2     		uxtb	r2, r2
 1965 0034 02F0FE02 		and	r2, r2, #254
 1966 0038 1A70     		strb	r2, [r3, #0]
 1967              		.loc 1 951 0
 1968 003a 0DE0     		b	.L65
 1969              	.L63:
 961:.\AudioControl.c **** 	}
 962:.\AudioControl.c **** 	
 963:.\AudioControl.c **** 	else
 964:.\AudioControl.c **** 	{
 965:.\AudioControl.c **** 		CyPins_SetPin(PSOC_STATUS_LED_0); /* Turn off the Status LED */
 1970              		.loc 1 965 0
 1971 003c 45F21903 		movw	r3, #:lower16:1073762329
 1972 0040 C4F20003 		movt	r3, #:upper16:1073762329
 1973 0044 45F21902 		movw	r2, #:lower16:1073762329
 1974 0048 C4F20002 		movt	r2, #:upper16:1073762329
 1975 004c 1278     		ldrb	r2, [r2, #0]
 1976 004e D2B2     		uxtb	r2, r2
 1977 0050 42F00102 		orr	r2, r2, #1
 1978 0054 D2B2     		uxtb	r2, r2
 1979 0056 1A70     		strb	r2, [r3, #0]
 1980              	.L65:
 966:.\AudioControl.c **** 	}
 967:.\AudioControl.c **** }
 1981              		.loc 1 967 0
 1982 0058 BD46     		mov	sp, r7
 1983 005a 80BC     		pop	{r7}
 1984 005c 7047     		bx	lr
 1985              		.cfi_endproc
 1986              	.LFE39:
 1987              		.size	UpdateAudioStatusUI, .-UpdateAudioStatusUI
 1988 005e 00BF     		.section	.text.HandleAudioInBuffer,"ax",%progbits
 1989              		.align	2
 1990              		.global	HandleAudioInBuffer
 1991              		.thumb
 1992              		.thumb_func
 1993              		.type	HandleAudioInBuffer, %function
ARM GAS  C:\DOCUME~1\ADMINI~1\LOCALS~1\Temp\ccCo8Fey.s 			page 53


 1994              	HandleAudioInBuffer:
 1995              	.LFB40:
 968:.\AudioControl.c **** 
 969:.\AudioControl.c **** /*******************************************************************************
 970:.\AudioControl.c **** * Function Name: HandleAudioInBuffer
 971:.\AudioControl.c **** ********************************************************************************
 972:.\AudioControl.c **** * Summary:
 973:.\AudioControl.c **** *       This routine clears the audio IN stream circular buffer and the audio
 974:.\AudioControl.c **** *       IN endpoint memory location based on the status of the audio IN stream.
 975:.\AudioControl.c **** *
 976:.\AudioControl.c **** * Parameters:
 977:.\AudioControl.c **** *  void
 978:.\AudioControl.c **** *
 979:.\AudioControl.c **** * Return:
 980:.\AudioControl.c **** *  void
 981:.\AudioControl.c **** *
 982:.\AudioControl.c **** *******************************************************************************/
 983:.\AudioControl.c **** #ifndef ENABLE_DIGITAL_AUDIO_OUT_ONLY
 984:.\AudioControl.c **** void HandleAudioInBuffer(void)
 985:.\AudioControl.c **** {
 1996              		.loc 1 985 0
 1997              		.cfi_startproc
 1998              		@ args = 0, pretend = 0, frame = 8
 1999              		@ frame_needed = 1, uses_anonymous_args = 0
 2000              		@ link register save eliminated.
 2001 0000 80B4     		push	{r7}
 2002              	.LCFI27:
 2003              		.cfi_def_cfa_offset 4
 2004 0002 83B0     		sub	sp, sp, #12
 2005              	.LCFI28:
 2006              		.cfi_def_cfa_offset 16
 2007 0004 00AF     		add	r7, sp, #0
 2008              		.cfi_offset 7, -4
 2009              	.LCFI29:
 2010              		.cfi_def_cfa_register 7
 986:.\AudioControl.c ****     uint16 index;
 987:.\AudioControl.c ****     
 988:.\AudioControl.c ****     if(clearInBuffer)
 2011              		.loc 1 988 0
 2012 0006 40F20003 		movw	r3, #:lower16:clearInBuffer
 2013 000a C0F20003 		movt	r3, #:upper16:clearInBuffer
 2014 000e 1B78     		ldrb	r3, [r3, #0]	@ zero_extendqisi2
 2015 0010 002B     		cmp	r3, #0
 2016 0012 26D0     		beq	.L71
 989:.\AudioControl.c ****     {
 990:.\AudioControl.c ****         /* Clear the IN circular buffer - This is slow and hence part of the main loop */
 991:.\AudioControl.c ****         for (index = 0; index < sizeof(inBuffer); index++)
 2017              		.loc 1 991 0
 2018 0014 4FF00003 		mov	r3, #0
 2019 0018 FB80     		strh	r3, [r7, #6]	@ movhi
 2020 001a 16E0     		b	.L68
 2021              	.L70:
 992:.\AudioControl.c ****         {
 993:.\AudioControl.c ****             if(index<IN_AUDIOMAXPKT)
 2022              		.loc 1 993 0
 2023 001c FB88     		ldrh	r3, [r7, #6]
 2024 001e BF2B     		cmp	r3, #191
ARM GAS  C:\DOCUME~1\ADMINI~1\LOCALS~1\Temp\ccCo8Fey.s 			page 54


 2025 0020 07D8     		bhi	.L69
 994:.\AudioControl.c ****             {
 995:.\AudioControl.c ****                 inRam[index] = 0;
 2026              		.loc 1 995 0
 2027 0022 FA88     		ldrh	r2, [r7, #6]
 2028 0024 40F20003 		movw	r3, #:lower16:inRam
 2029 0028 C0F20003 		movt	r3, #:upper16:inRam
 2030 002c 4FF00001 		mov	r1, #0
 2031 0030 9954     		strb	r1, [r3, r2]
 2032              	.L69:
 996:.\AudioControl.c ****             }
 997:.\AudioControl.c ****             inBuffer[index] = 0;
 2033              		.loc 1 997 0
 2034 0032 FA88     		ldrh	r2, [r7, #6]
 2035 0034 40F20003 		movw	r3, #:lower16:inBuffer
 2036 0038 C0F20003 		movt	r3, #:upper16:inBuffer
 2037 003c 4FF00001 		mov	r1, #0
 2038 0040 9954     		strb	r1, [r3, r2]
 2039              		.loc 1 991 0
 2040 0042 FB88     		ldrh	r3, [r7, #6]	@ movhi
 2041 0044 03F10103 		add	r3, r3, #1
 2042 0048 FB80     		strh	r3, [r7, #6]	@ movhi
 2043              	.L68:
 2044 004a FA88     		ldrh	r2, [r7, #6]
 2045 004c 40F2FF23 		movw	r3, #767
 2046 0050 9A42     		cmp	r2, r3
 2047 0052 E3D9     		bls	.L70
 998:.\AudioControl.c ****         }
 999:.\AudioControl.c ****         clearInBuffer = 0;
 2048              		.loc 1 999 0
 2049 0054 40F20003 		movw	r3, #:lower16:clearInBuffer
 2050 0058 C0F20003 		movt	r3, #:upper16:clearInBuffer
 2051 005c 4FF00002 		mov	r2, #0
 2052 0060 1A70     		strb	r2, [r3, #0]
 2053              	.L71:
1000:.\AudioControl.c ****     }
1001:.\AudioControl.c **** }
 2054              		.loc 1 1001 0
 2055 0062 07F10C07 		add	r7, r7, #12
 2056 0066 BD46     		mov	sp, r7
 2057 0068 80BC     		pop	{r7}
 2058 006a 7047     		bx	lr
 2059              		.cfi_endproc
 2060              	.LFE40:
 2061              		.size	HandleAudioInBuffer, .-HandleAudioInBuffer
 2062              		.section	.text.CICOutDMA_ConfigAndStart,"ax",%progbits
 2063              		.align	2
 2064              		.global	CICOutDMA_ConfigAndStart
 2065              		.thumb
 2066              		.thumb_func
 2067              		.type	CICOutDMA_ConfigAndStart, %function
 2068              	CICOutDMA_ConfigAndStart:
 2069              	.LFB41:
1002:.\AudioControl.c **** #endif
1003:.\AudioControl.c **** 
1004:.\AudioControl.c **** /*******************************************************************************
1005:.\AudioControl.c **** * Function Name: CICOutDMA_ConfigAndStart
ARM GAS  C:\DOCUME~1\ADMINI~1\LOCALS~1\Temp\ccCo8Fey.s 			page 55


1006:.\AudioControl.c **** ********************************************************************************
1007:.\AudioControl.c **** * Summary:
1008:.\AudioControl.c **** *       This routine configures and enables the CIC output DMAs to move CIC
1009:.\AudioControl.c **** *       output data to the DFB staging registers.
1010:.\AudioControl.c **** *
1011:.\AudioControl.c **** * Parameters:
1012:.\AudioControl.c **** *  void
1013:.\AudioControl.c **** *
1014:.\AudioControl.c **** * Return:
1015:.\AudioControl.c **** *  void
1016:.\AudioControl.c **** *
1017:.\AudioControl.c **** *******************************************************************************/
1018:.\AudioControl.c **** void CICOutDMA_ConfigAndStart(void)
1019:.\AudioControl.c **** {
 2070              		.loc 1 1019 0
 2071              		.cfi_startproc
 2072              		@ args = 0, pretend = 0, frame = 8
 2073              		@ frame_needed = 1, uses_anonymous_args = 0
 2074 0000 80B5     		push	{r7, lr}
 2075              	.LCFI30:
 2076              		.cfi_def_cfa_offset 8
 2077 0002 82B0     		sub	sp, sp, #8
 2078              	.LCFI31:
 2079              		.cfi_def_cfa_offset 16
 2080 0004 00AF     		add	r7, sp, #0
 2081              		.cfi_offset 14, -4
 2082              		.cfi_offset 7, -8
 2083              	.LCFI32:
 2084              		.cfi_def_cfa_register 7
1020:.\AudioControl.c **** 	uint8 DMA_CICOut_Left_Channel, DMA_CICOut_Left_TD[2];
1021:.\AudioControl.c ****     uint8 DMA_CICOut_Right_Channel, DMA_CICOut_Right_TD[2];
1022:.\AudioControl.c **** 	
1023:.\AudioControl.c ****     /* PDM left channel DMA configuration */
1024:.\AudioControl.c **** 	DMA_CICOut_Left_Channel = CICOut_L_DmaInitialize(2, 1, HI16(CYDEV_PERIPH_BASE), HI16(CYDEV_PERIPH_
 2085              		.loc 1 1024 0
 2086 0006 4FF00200 		mov	r0, #2
 2087 000a 4FF00101 		mov	r1, #1
 2088 000e 4FF48042 		mov	r2, #16384
 2089 0012 4FF48043 		mov	r3, #16384
 2090 0016 FFF7FEFF 		bl	CICOut_L_DmaInitialize
 2091 001a 0346     		mov	r3, r0
 2092 001c BB71     		strb	r3, [r7, #6]
1025:.\AudioControl.c **** 
1026:.\AudioControl.c **** 	DMA_CICOut_Left_TD[0] = CyDmaTdAllocate();
 2093              		.loc 1 1026 0
 2094 001e FFF7FEFF 		bl	CyDmaTdAllocate
 2095 0022 0346     		mov	r3, r0
 2096 0024 3B71     		strb	r3, [r7, #4]
1027:.\AudioControl.c **** 	DMA_CICOut_Left_TD[1] = CyDmaTdAllocate();
 2097              		.loc 1 1027 0
 2098 0026 FFF7FEFF 		bl	CyDmaTdAllocate
 2099 002a 0346     		mov	r3, r0
 2100 002c 7B71     		strb	r3, [r7, #5]
1028:.\AudioControl.c **** 	
1029:.\AudioControl.c ****     #ifdef DISABLE_DFB
1030:.\AudioControl.c **** 	CyDmaTdSetConfiguration(DMA_CICOut_Left_TD[0], sizeof(leftCICOutput), DMA_CICOut_Left_TD[0], TD_IN
1031:.\AudioControl.c **** 	CyDmaTdSetConfiguration(DMA_CICOut_Left_TD[1], 2, DMA_CICOut_Left_TD[0],TD_INC_DST_ADR);
ARM GAS  C:\DOCUME~1\ADMINI~1\LOCALS~1\Temp\ccCo8Fey.s 			page 56


1032:.\AudioControl.c **** 	
1033:.\AudioControl.c ****     CyDmaTdSetAddress(DMA_CICOut_Left_TD[0], LO16((uint32)(PDM_CIC_LEFT_HI16_OUTPUT_REG_PTR)), LO16
1034:.\AudioControl.c **** 	CyDmaTdSetAddress(DMA_CICOut_Left_TD[1], LO16((uint32)(PDM_CIC_LEFT_LO16_OUTPUT_REG_PTR)), LO16((u
1035:.\AudioControl.c ****     #else
1036:.\AudioControl.c ****     CyDmaTdSetConfiguration(DMA_CICOut_Left_TD[0], 2, DMA_CICOut_Left_TD[1], TD_AUTO_EXEC_NEXT); 
 2101              		.loc 1 1036 0
 2102 002e 3A79     		ldrb	r2, [r7, #4]	@ zero_extendqisi2
 2103 0030 7B79     		ldrb	r3, [r7, #5]	@ zero_extendqisi2
 2104 0032 1046     		mov	r0, r2
 2105 0034 4FF00201 		mov	r1, #2
 2106 0038 1A46     		mov	r2, r3
 2107 003a 4FF02003 		mov	r3, #32
 2108 003e FFF7FEFF 		bl	CyDmaTdSetConfiguration
1037:.\AudioControl.c **** 	CyDmaTdSetConfiguration(DMA_CICOut_Left_TD[1], 2, DMA_CICOut_Left_TD[0],0);
 2109              		.loc 1 1037 0
 2110 0042 7A79     		ldrb	r2, [r7, #5]	@ zero_extendqisi2
 2111 0044 3B79     		ldrb	r3, [r7, #4]	@ zero_extendqisi2
 2112 0046 1046     		mov	r0, r2
 2113 0048 4FF00201 		mov	r1, #2
 2114 004c 1A46     		mov	r2, r3
 2115 004e 4FF00003 		mov	r3, #0
 2116 0052 FFF7FEFF 		bl	CyDmaTdSetConfiguration
1038:.\AudioControl.c ****     
1039:.\AudioControl.c **** 	/* Consider DFB coherency when ordering the DFB TD's */
1040:.\AudioControl.c **** 	CyDmaTdSetAddress(DMA_CICOut_Left_TD[0], LO16((uint32)(PDM_CIC_LEFT_HI16_OUTPUT_REG_PTR)), LO16((u
 2117              		.loc 1 1040 0
 2118 0056 3B79     		ldrb	r3, [r7, #4]	@ zero_extendqisi2
 2119 0058 1846     		mov	r0, r3
 2120 005a 46F69C01 		movw	r1, #26780
 2121 005e 4CF2A272 		movw	r2, #51106
 2122 0062 FFF7FEFF 		bl	CyDmaTdSetAddress
1041:.\AudioControl.c **** 	CyDmaTdSetAddress(DMA_CICOut_Left_TD[1], LO16((uint32)(PDM_CIC_LEFT_LO16_OUTPUT_REG_PTR)), LO16((u
 2123              		.loc 1 1041 0
 2124 0066 7B79     		ldrb	r3, [r7, #5]	@ zero_extendqisi2
 2125 0068 1846     		mov	r0, r3
 2126 006a 46F69801 		movw	r1, #26776
 2127 006e 4CF2A072 		movw	r2, #51104
 2128 0072 FFF7FEFF 		bl	CyDmaTdSetAddress
1042:.\AudioControl.c ****     #endif
1043:.\AudioControl.c **** 		
1044:.\AudioControl.c **** 	CyDmaChSetInitialTd(DMA_CICOut_Left_Channel, DMA_CICOut_Left_TD[0]);
 2129              		.loc 1 1044 0
 2130 0076 3B79     		ldrb	r3, [r7, #4]	@ zero_extendqisi2
 2131 0078 BA79     		ldrb	r2, [r7, #6]	@ zero_extendqisi2
 2132 007a 1046     		mov	r0, r2
 2133 007c 1946     		mov	r1, r3
 2134 007e FFF7FEFF 		bl	CyDmaChSetInitialTd
1045:.\AudioControl.c **** 	CyDmaChEnable(DMA_CICOut_Left_Channel, 1);
 2135              		.loc 1 1045 0
 2136 0082 BB79     		ldrb	r3, [r7, #6]	@ zero_extendqisi2
 2137 0084 1846     		mov	r0, r3
 2138 0086 4FF00101 		mov	r1, #1
 2139 008a FFF7FEFF 		bl	CyDmaChEnable
1046:.\AudioControl.c ****     
1047:.\AudioControl.c ****     /* PDM right channel DMA configuration */
1048:.\AudioControl.c ****     DMA_CICOut_Right_Channel = CICOut_R_DmaInitialize(2, 1, HI16(CYDEV_PERIPH_BASE), HI16(CYDEV_PER
 2140              		.loc 1 1048 0
ARM GAS  C:\DOCUME~1\ADMINI~1\LOCALS~1\Temp\ccCo8Fey.s 			page 57


 2141 008e 4FF00200 		mov	r0, #2
 2142 0092 4FF00101 		mov	r1, #1
 2143 0096 4FF48042 		mov	r2, #16384
 2144 009a 4FF48043 		mov	r3, #16384
 2145 009e FFF7FEFF 		bl	CICOut_R_DmaInitialize
 2146 00a2 0346     		mov	r3, r0
 2147 00a4 FB71     		strb	r3, [r7, #7]
1049:.\AudioControl.c **** 
1050:.\AudioControl.c **** 	DMA_CICOut_Right_TD[0] = CyDmaTdAllocate();
 2148              		.loc 1 1050 0
 2149 00a6 FFF7FEFF 		bl	CyDmaTdAllocate
 2150 00aa 0346     		mov	r3, r0
 2151 00ac 3B70     		strb	r3, [r7, #0]
1051:.\AudioControl.c **** 	DMA_CICOut_Right_TD[1] = CyDmaTdAllocate();
 2152              		.loc 1 1051 0
 2153 00ae FFF7FEFF 		bl	CyDmaTdAllocate
 2154 00b2 0346     		mov	r3, r0
 2155 00b4 7B70     		strb	r3, [r7, #1]
1052:.\AudioControl.c ****     
1053:.\AudioControl.c ****     #ifdef DISABLE_DFB
1054:.\AudioControl.c ****         CyDmaTdSetConfiguration(DMA_CICOut_Right_TD[0], sizeof(rightCICOutput), DMA_CICOut_Right_TD
1055:.\AudioControl.c ****     	CyDmaTdSetConfiguration(DMA_CICOut_Right_TD[1], 2, DMA_CICOut_Right_TD[0],0);
1056:.\AudioControl.c ****     	
1057:.\AudioControl.c ****     	/* Consider DFB coherency when ordering the DFB TD's */
1058:.\AudioControl.c ****     	CyDmaTdSetAddress(DMA_CICOut_Right_TD[0], LO16((uint32)(PDM_CIC_RIGHT_HI16_OUTPUT_REG_PTR)), L
1059:.\AudioControl.c ****     	CyDmaTdSetAddress(DMA_CICOut_Right_TD[1], LO16((uint32)(PDM_CIC_RIGHT_LO16_OUTPUT_REG_PTR)), L
1060:.\AudioControl.c ****     #else
1061:.\AudioControl.c **** 	CyDmaTdSetConfiguration(DMA_CICOut_Right_TD[0], 2, DMA_CICOut_Right_TD[1], TD_AUTO_EXEC_NEXT); 
 2156              		.loc 1 1061 0
 2157 00b6 3A78     		ldrb	r2, [r7, #0]	@ zero_extendqisi2
 2158 00b8 7B78     		ldrb	r3, [r7, #1]	@ zero_extendqisi2
 2159 00ba 1046     		mov	r0, r2
 2160 00bc 4FF00201 		mov	r1, #2
 2161 00c0 1A46     		mov	r2, r3
 2162 00c2 4FF02003 		mov	r3, #32
 2163 00c6 FFF7FEFF 		bl	CyDmaTdSetConfiguration
1062:.\AudioControl.c **** 	CyDmaTdSetConfiguration(DMA_CICOut_Right_TD[1], 2, DMA_CICOut_Right_TD[0],0);
 2164              		.loc 1 1062 0
 2165 00ca 7A78     		ldrb	r2, [r7, #1]	@ zero_extendqisi2
 2166 00cc 3B78     		ldrb	r3, [r7, #0]	@ zero_extendqisi2
 2167 00ce 1046     		mov	r0, r2
 2168 00d0 4FF00201 		mov	r1, #2
 2169 00d4 1A46     		mov	r2, r3
 2170 00d6 4FF00003 		mov	r3, #0
 2171 00da FFF7FEFF 		bl	CyDmaTdSetConfiguration
1063:.\AudioControl.c **** 	
1064:.\AudioControl.c **** 	/* Consider DFB coherency when ordering the DFB TD's */
1065:.\AudioControl.c **** 	CyDmaTdSetAddress(DMA_CICOut_Right_TD[0], LO16((uint32)(PDM_CIC_RIGHT_HI16_OUTPUT_REG_PTR)), LO16(
 2172              		.loc 1 1065 0
 2173 00de 3B78     		ldrb	r3, [r7, #0]	@ zero_extendqisi2
 2174 00e0 1846     		mov	r0, r3
 2175 00e2 46F69421 		movw	r1, #27284
 2176 00e6 4CF2A672 		movw	r2, #51110
 2177 00ea FFF7FEFF 		bl	CyDmaTdSetAddress
1066:.\AudioControl.c **** 	CyDmaTdSetAddress(DMA_CICOut_Right_TD[1], LO16((uint32)(PDM_CIC_RIGHT_LO16_OUTPUT_REG_PTR)), LO16(
 2178              		.loc 1 1066 0
 2179 00ee 7B78     		ldrb	r3, [r7, #1]	@ zero_extendqisi2
ARM GAS  C:\DOCUME~1\ADMINI~1\LOCALS~1\Temp\ccCo8Fey.s 			page 58


 2180 00f0 1846     		mov	r0, r3
 2181 00f2 46F69021 		movw	r1, #27280
 2182 00f6 4CF2A472 		movw	r2, #51108
 2183 00fa FFF7FEFF 		bl	CyDmaTdSetAddress
1067:.\AudioControl.c ****     #endif
1068:.\AudioControl.c **** 		
1069:.\AudioControl.c **** 	CyDmaChSetInitialTd(DMA_CICOut_Right_Channel, DMA_CICOut_Right_TD[0]);
 2184              		.loc 1 1069 0
 2185 00fe 3B78     		ldrb	r3, [r7, #0]	@ zero_extendqisi2
 2186 0100 FA79     		ldrb	r2, [r7, #7]	@ zero_extendqisi2
 2187 0102 1046     		mov	r0, r2
 2188 0104 1946     		mov	r1, r3
 2189 0106 FFF7FEFF 		bl	CyDmaChSetInitialTd
1070:.\AudioControl.c **** 	CyDmaChEnable(DMA_CICOut_Right_Channel, 1);
 2190              		.loc 1 1070 0
 2191 010a FB79     		ldrb	r3, [r7, #7]	@ zero_extendqisi2
 2192 010c 1846     		mov	r0, r3
 2193 010e 4FF00101 		mov	r1, #1
 2194 0112 FFF7FEFF 		bl	CyDmaChEnable
1071:.\AudioControl.c **** }
 2195              		.loc 1 1071 0
 2196 0116 07F10807 		add	r7, r7, #8
 2197 011a BD46     		mov	sp, r7
 2198 011c 80BD     		pop	{r7, pc}
 2199              		.cfi_endproc
 2200              	.LFE41:
 2201              		.size	CICOutDMA_ConfigAndStart, .-CICOutDMA_ConfigAndStart
 2202              		.section	.text.Droop_Filter_ModifiedSaveConfig,"ax",%progbits
 2203              		.align	2
 2204              		.global	Droop_Filter_ModifiedSaveConfig
 2205              		.thumb
 2206              		.thumb_func
 2207              		.type	Droop_Filter_ModifiedSaveConfig, %function
 2208              	Droop_Filter_ModifiedSaveConfig:
 2209              	.LFB42:
1072:.\AudioControl.c **** 
1073:.\AudioControl.c **** /*******************************************************************************
1074:.\AudioControl.c **** * Function Name: Droop_Filter_ModifiedSaveConfig
1075:.\AudioControl.c **** ********************************************************************************
1076:.\AudioControl.c **** *
1077:.\AudioControl.c **** * Summary:
1078:.\AudioControl.c **** *  Saves Droop_Filter block configuration. Droop_Filter assembler Component API not used
1079:.\AudioControl.c **** *  due to the rentention not being done properly there. API name modified and
1080:.\AudioControl.c **** *  redefined here based on the Filter component code
1081:.\AudioControl.c **** *
1082:.\AudioControl.c **** * Parameters:
1083:.\AudioControl.c **** *  None.
1084:.\AudioControl.c **** *
1085:.\AudioControl.c **** * Return:
1086:.\AudioControl.c **** *  None.
1087:.\AudioControl.c **** *
1088:.\AudioControl.c **** * Global Variables:
1089:.\AudioControl.c **** *  Droop_Filter_Custom_backup - modified when non-retention registers are saved.
1090:.\AudioControl.c **** *
1091:.\AudioControl.c **** *******************************************************************************/
1092:.\AudioControl.c **** void Droop_Filter_ModifiedSaveConfig(void)
1093:.\AudioControl.c **** {
ARM GAS  C:\DOCUME~1\ADMINI~1\LOCALS~1\Temp\ccCo8Fey.s 			page 59


 2210              		.loc 1 1093 0
 2211              		.cfi_startproc
 2212              		@ args = 0, pretend = 0, frame = 0
 2213              		@ frame_needed = 1, uses_anonymous_args = 0
 2214              		@ link register save eliminated.
 2215 0000 80B4     		push	{r7}
 2216              	.LCFI33:
 2217              		.cfi_def_cfa_offset 4
 2218 0002 00AF     		add	r7, sp, #0
 2219              		.cfi_offset 7, -4
 2220              	.LCFI34:
 2221              		.cfi_def_cfa_register 7
1094:.\AudioControl.c ****     Droop_Filter_Custom_backup.cr = Droop_Filter_CR_REG;
 2222              		.loc 1 1094 0
 2223 0004 4CF28073 		movw	r3, #:lower16:1073792896
 2224 0008 C4F20003 		movt	r3, #:upper16:1073792896
 2225 000c 1B78     		ldrb	r3, [r3, #0]
 2226 000e DAB2     		uxtb	r2, r3
 2227 0010 40F20003 		movw	r3, #:lower16:Droop_Filter_Custom_backup
 2228 0014 C0F20003 		movt	r3, #:upper16:Droop_Filter_Custom_backup
 2229 0018 5A70     		strb	r2, [r3, #1]
1095:.\AudioControl.c ****     Droop_Filter_Custom_backup.sr = Droop_Filter_SR_REG;
 2230              		.loc 1 1095 0
 2231 001a 4CF28473 		movw	r3, #:lower16:1073792900
 2232 001e C4F20003 		movt	r3, #:upper16:1073792900
 2233 0022 1B78     		ldrb	r3, [r3, #0]
 2234 0024 DAB2     		uxtb	r2, r3
 2235 0026 40F20003 		movw	r3, #:lower16:Droop_Filter_Custom_backup
 2236 002a C0F20003 		movt	r3, #:upper16:Droop_Filter_Custom_backup
 2237 002e 9A70     		strb	r2, [r3, #2]
1096:.\AudioControl.c ****     //Droop_Filter_Custom_backup.sema = Droop_Filter_SEM_REG;
1097:.\AudioControl.c **** }
 2238              		.loc 1 1097 0
 2239 0030 BD46     		mov	sp, r7
 2240 0032 80BC     		pop	{r7}
 2241 0034 7047     		bx	lr
 2242              		.cfi_endproc
 2243              	.LFE42:
 2244              		.size	Droop_Filter_ModifiedSaveConfig, .-Droop_Filter_ModifiedSaveConfig
 2245 0036 00BF     		.section	.text.Droop_Filter_ModifiedRestoreConfig,"ax",%progbits
 2246              		.align	2
 2247              		.global	Droop_Filter_ModifiedRestoreConfig
 2248              		.thumb
 2249              		.thumb_func
 2250              		.type	Droop_Filter_ModifiedRestoreConfig, %function
 2251              	Droop_Filter_ModifiedRestoreConfig:
 2252              	.LFB43:
1098:.\AudioControl.c **** 
1099:.\AudioControl.c **** /*******************************************************************************
1100:.\AudioControl.c **** * Function Name: Droop_Filter_ModifiedRestoreConfig
1101:.\AudioControl.c **** ********************************************************************************
1102:.\AudioControl.c **** *
1103:.\AudioControl.c **** * Summary:
1104:.\AudioControl.c **** *  Restores Droop_Filter block configuration. Droop_Filter assembler Component API not used
1105:.\AudioControl.c **** *  due to the rentention not being done properly there. API name modified and
1106:.\AudioControl.c **** *  redefined here based on the Filter component code
1107:.\AudioControl.c **** *
ARM GAS  C:\DOCUME~1\ADMINI~1\LOCALS~1\Temp\ccCo8Fey.s 			page 60


1108:.\AudioControl.c **** * Parameters:
1109:.\AudioControl.c **** *  None.
1110:.\AudioControl.c **** *
1111:.\AudioControl.c **** * Return:
1112:.\AudioControl.c **** *  None.
1113:.\AudioControl.c **** *
1114:.\AudioControl.c **** * Global Variables:
1115:.\AudioControl.c **** *  Droop_Filter_Custom_backup - used when non-retention registers are restored.
1116:.\AudioControl.c **** *  Droop_Filter_acu - used to restore ACU ram content. Array defined in Droop_Filter_RAM_Data.c
1117:.\AudioControl.c **** *
1118:.\AudioControl.c **** *******************************************************************************/
1119:.\AudioControl.c **** void Droop_Filter_ModifiedRestoreConfig(void)
1120:.\AudioControl.c **** {
 2253              		.loc 1 1120 0
 2254              		.cfi_startproc
 2255              		@ args = 0, pretend = 0, frame = 0
 2256              		@ frame_needed = 1, uses_anonymous_args = 0
 2257              		@ link register save eliminated.
 2258 0000 80B4     		push	{r7}
 2259              	.LCFI35:
 2260              		.cfi_def_cfa_offset 4
 2261 0002 00AF     		add	r7, sp, #0
 2262              		.cfi_offset 7, -4
 2263              	.LCFI36:
 2264              		.cfi_def_cfa_register 7
1121:.\AudioControl.c **** 	Droop_Filter_CR_REG = Droop_Filter_Custom_backup.cr;
 2265              		.loc 1 1121 0
 2266 0004 4CF28073 		movw	r3, #:lower16:1073792896
 2267 0008 C4F20003 		movt	r3, #:upper16:1073792896
 2268 000c 40F20002 		movw	r2, #:lower16:Droop_Filter_Custom_backup
 2269 0010 C0F20002 		movt	r2, #:upper16:Droop_Filter_Custom_backup
 2270 0014 5278     		ldrb	r2, [r2, #1]	@ zero_extendqisi2
 2271 0016 1A70     		strb	r2, [r3, #0]
1122:.\AudioControl.c **** 	Droop_Filter_SR_REG = Droop_Filter_Custom_backup.sr;
 2272              		.loc 1 1122 0
 2273 0018 4CF28473 		movw	r3, #:lower16:1073792900
 2274 001c C4F20003 		movt	r3, #:upper16:1073792900
 2275 0020 40F20002 		movw	r2, #:lower16:Droop_Filter_Custom_backup
 2276 0024 C0F20002 		movt	r2, #:upper16:Droop_Filter_Custom_backup
 2277 0028 9278     		ldrb	r2, [r2, #2]	@ zero_extendqisi2
 2278 002a 1A70     		strb	r2, [r3, #0]
1123:.\AudioControl.c **** 	//Droop_Filter_SEM_REG = Droop_Filter_Custom_backup.sema;
1124:.\AudioControl.c **** 
1125:.\AudioControl.c ****     /* Power on Droop_Filter before initializing the RAMs */
1126:.\AudioControl.c ****     Droop_Filter_PM_ACT_CFG_REG |= Droop_Filter_PM_ACT_MSK;
 2279              		.loc 1 1126 0
 2280 002c 44F2A633 		movw	r3, #:lower16:1073759142
 2281 0030 C4F20003 		movt	r3, #:upper16:1073759142
 2282 0034 44F2A632 		movw	r2, #:lower16:1073759142
 2283 0038 C4F20002 		movt	r2, #:upper16:1073759142
 2284 003c 1278     		ldrb	r2, [r2, #0]
 2285 003e D2B2     		uxtb	r2, r2
 2286 0040 42F01002 		orr	r2, r2, #16
 2287 0044 D2B2     		uxtb	r2, r2
 2288 0046 1A70     		strb	r2, [r3, #0]
1127:.\AudioControl.c **** 
1128:.\AudioControl.c ****     /* Put Droop_Filter RAM on the bus */
ARM GAS  C:\DOCUME~1\ADMINI~1\LOCALS~1\Temp\ccCo8Fey.s 			page 61


1129:.\AudioControl.c ****     Droop_Filter_RAM_DIR_REG = Droop_Filter_RAM_DIR_BUS;
 2289              		.loc 1 1129 0
 2290 0048 4CF28C73 		movw	r3, #:lower16:1073792908
 2291 004c C4F20003 		movt	r3, #:upper16:1073792908
 2292 0050 4FF03F02 		mov	r2, #63
 2293 0054 1A70     		strb	r2, [r3, #0]
1130:.\AudioControl.c **** 	
1131:.\AudioControl.c **** 	/* Restore the ACU RAM content */
1132:.\AudioControl.c **** 	//Droop_Filter_ModifiedZeroReg32(Droop_Filter_ACU_RAM_PTR, Droop_Filter_ACU_RAM_SIZE);
1133:.\AudioControl.c **** 	//Droop_Filter_ModifiedLoadReg32(Droop_Filter_ACU_RAM_PTR, Droop_Filter_acu, Droop_Filter_ACU_RAM_
1134:.\AudioControl.c **** 	
1135:.\AudioControl.c **** 	/* Take Droop_Filter RAM off the bus */
1136:.\AudioControl.c ****     Droop_Filter_RAM_DIR_REG = Droop_Filter_RAM_DIR_DFB;	
 2294              		.loc 1 1136 0
 2295 0056 4CF28C73 		movw	r3, #:lower16:1073792908
 2296 005a C4F20003 		movt	r3, #:upper16:1073792908
 2297 005e 4FF00002 		mov	r2, #0
 2298 0062 1A70     		strb	r2, [r3, #0]
1137:.\AudioControl.c **** }
 2299              		.loc 1 1137 0
 2300 0064 BD46     		mov	sp, r7
 2301 0066 80BC     		pop	{r7}
 2302 0068 7047     		bx	lr
 2303              		.cfi_endproc
 2304              	.LFE43:
 2305              		.size	Droop_Filter_ModifiedRestoreConfig, .-Droop_Filter_ModifiedRestoreConfig
 2306 006a 00BF     		.section	.text.Droop_Filter_ModifiedSleep,"ax",%progbits
 2307              		.align	2
 2308              		.global	Droop_Filter_ModifiedSleep
 2309              		.thumb
 2310              		.thumb_func
 2311              		.type	Droop_Filter_ModifiedSleep, %function
 2312              	Droop_Filter_ModifiedSleep:
 2313              	.LFB44:
1138:.\AudioControl.c **** 
1139:.\AudioControl.c **** /*******************************************************************************
1140:.\AudioControl.c **** * Function Name: Droop_Filter_ModifiedSleep
1141:.\AudioControl.c **** ********************************************************************************
1142:.\AudioControl.c **** *
1143:.\AudioControl.c **** * Summary:
1144:.\AudioControl.c **** *  Prepares Droop_Filter component to sleep. Currrent version of Droop_Filter 
1145:.\AudioControl.c **** *  assembler Component API not used due to the retention not being done properly 
1146:.\AudioControl.c **** *  there. API name modified and redefined here based on the Filter component code.
1147:.\AudioControl.c **** *
1148:.\AudioControl.c **** *
1149:.\AudioControl.c **** * Parameters:
1150:.\AudioControl.c **** *  None.
1151:.\AudioControl.c **** *
1152:.\AudioControl.c **** * Return:
1153:.\AudioControl.c **** *  None.
1154:.\AudioControl.c **** *
1155:.\AudioControl.c **** * Global Variables:
1156:.\AudioControl.c **** *  Droop_Filter_Custom_backup - modified when non-retention registers are saved.
1157:.\AudioControl.c **** *
1158:.\AudioControl.c **** *******************************************************************************/
1159:.\AudioControl.c **** void Droop_Filter_ModifiedSleep(void)
1160:.\AudioControl.c **** {
ARM GAS  C:\DOCUME~1\ADMINI~1\LOCALS~1\Temp\ccCo8Fey.s 			page 62


 2314              		.loc 1 1160 0
 2315              		.cfi_startproc
 2316              		@ args = 0, pretend = 0, frame = 0
 2317              		@ frame_needed = 1, uses_anonymous_args = 0
 2318 0000 80B5     		push	{r7, lr}
 2319              	.LCFI37:
 2320              		.cfi_def_cfa_offset 8
 2321 0002 00AF     		add	r7, sp, #0
 2322              		.cfi_offset 14, -4
 2323              		.cfi_offset 7, -8
 2324              	.LCFI38:
 2325              		.cfi_def_cfa_register 7
1161:.\AudioControl.c ****     /* Save Filter enable state */
1162:.\AudioControl.c ****     if(Droop_Filter_PM_ACT_MSK == (Droop_Filter_PM_ACT_CFG_REG & Droop_Filter_PM_ACT_MSK))
 2326              		.loc 1 1162 0
 2327 0004 44F2A633 		movw	r3, #:lower16:1073759142
 2328 0008 C4F20003 		movt	r3, #:upper16:1073759142
 2329 000c 1B78     		ldrb	r3, [r3, #0]
 2330 000e DBB2     		uxtb	r3, r3
 2331 0010 03F01003 		and	r3, r3, #16
 2332 0014 002B     		cmp	r3, #0
 2333 0016 07D0     		beq	.L79
1163:.\AudioControl.c ****     {
1164:.\AudioControl.c ****         /* Component is enabled */
1165:.\AudioControl.c ****         Droop_Filter_Custom_backup.enableState = Droop_Filter_CUSTOM_ENABLED;
 2334              		.loc 1 1165 0
 2335 0018 40F20003 		movw	r3, #:lower16:Droop_Filter_Custom_backup
 2336 001c C0F20003 		movt	r3, #:upper16:Droop_Filter_Custom_backup
 2337 0020 4FF00102 		mov	r2, #1
 2338 0024 1A70     		strb	r2, [r3, #0]
 2339 0026 06E0     		b	.L80
 2340              	.L79:
1166:.\AudioControl.c ****     }
1167:.\AudioControl.c ****     else
1168:.\AudioControl.c ****     {
1169:.\AudioControl.c ****         /* Component is disabled */
1170:.\AudioControl.c ****         Droop_Filter_Custom_backup.enableState = Droop_Filter_CUSTOM_DISABLED;
 2341              		.loc 1 1170 0
 2342 0028 40F20003 		movw	r3, #:lower16:Droop_Filter_Custom_backup
 2343 002c C0F20003 		movt	r3, #:upper16:Droop_Filter_Custom_backup
 2344 0030 4FF00002 		mov	r2, #0
 2345 0034 1A70     		strb	r2, [r3, #0]
 2346              	.L80:
1171:.\AudioControl.c ****     }
1172:.\AudioControl.c **** 
1173:.\AudioControl.c ****     /* Stop the configuration */
1174:.\AudioControl.c ****     Droop_Filter_Stop();	
 2347              		.loc 1 1174 0
 2348 0036 FFF7FEFF 		bl	Droop_Filter_Stop
1175:.\AudioControl.c **** 
1176:.\AudioControl.c ****     /* Save the configuration */
1177:.\AudioControl.c ****     Droop_Filter_ModifiedSaveConfig();
 2349              		.loc 1 1177 0
 2350 003a FFF7FEFF 		bl	Droop_Filter_ModifiedSaveConfig
1178:.\AudioControl.c **** }
 2351              		.loc 1 1178 0
 2352 003e 80BD     		pop	{r7, pc}
ARM GAS  C:\DOCUME~1\ADMINI~1\LOCALS~1\Temp\ccCo8Fey.s 			page 63


 2353              		.cfi_endproc
 2354              	.LFE44:
 2355              		.size	Droop_Filter_ModifiedSleep, .-Droop_Filter_ModifiedSleep
 2356              		.section	.text.Droop_Filter_ModifiedWakeup,"ax",%progbits
 2357              		.align	2
 2358              		.global	Droop_Filter_ModifiedWakeup
 2359              		.thumb
 2360              		.thumb_func
 2361              		.type	Droop_Filter_ModifiedWakeup, %function
 2362              	Droop_Filter_ModifiedWakeup:
 2363              	.LFB45:
1179:.\AudioControl.c **** 
1180:.\AudioControl.c **** /*******************************************************************************
1181:.\AudioControl.c **** * Function Name: Droop_Filter_ModifiedWakeup
1182:.\AudioControl.c **** ********************************************************************************
1183:.\AudioControl.c **** *
1184:.\AudioControl.c **** * Summary:
1185:.\AudioControl.c **** *  Wakes the Droop_Filter component from sleep. Droop_Filter assembler Component API not used
1186:.\AudioControl.c **** *  due to the rentention not being done properly there. API name modified and
1187:.\AudioControl.c **** *  redefined here based on the Filter component code
1188:.\AudioControl.c **** *
1189:.\AudioControl.c **** *
1190:.\AudioControl.c **** * Parameters:
1191:.\AudioControl.c **** *  None.
1192:.\AudioControl.c **** *
1193:.\AudioControl.c **** * Return:
1194:.\AudioControl.c **** *  None.
1195:.\AudioControl.c **** *
1196:.\AudioControl.c **** * Global Variables:
1197:.\AudioControl.c **** *  Droop_Filter_Custom_backup - used when non-retention registers are restored.
1198:.\AudioControl.c **** *
1199:.\AudioControl.c **** *******************************************************************************/
1200:.\AudioControl.c **** void Droop_Filter_ModifiedWakeup(void)
1201:.\AudioControl.c **** {
 2364              		.loc 1 1201 0
 2365              		.cfi_startproc
 2366              		@ args = 0, pretend = 0, frame = 0
 2367              		@ frame_needed = 1, uses_anonymous_args = 0
 2368 0000 80B5     		push	{r7, lr}
 2369              	.LCFI39:
 2370              		.cfi_def_cfa_offset 8
 2371 0002 00AF     		add	r7, sp, #0
 2372              		.cfi_offset 14, -4
 2373              		.cfi_offset 7, -8
 2374              	.LCFI40:
 2375              		.cfi_def_cfa_register 7
1202:.\AudioControl.c ****     /* Restore the configuration */
1203:.\AudioControl.c ****     Droop_Filter_ModifiedRestoreConfig();
 2376              		.loc 1 1203 0
 2377 0004 FFF7FEFF 		bl	Droop_Filter_ModifiedRestoreConfig
1204:.\AudioControl.c ****     
1205:.\AudioControl.c ****     /* Enable's the component operation */
1206:.\AudioControl.c ****     if(Droop_Filter_Custom_backup.enableState == Droop_Filter_CUSTOM_ENABLED)
 2378              		.loc 1 1206 0
 2379 0008 40F20003 		movw	r3, #:lower16:Droop_Filter_Custom_backup
 2380 000c C0F20003 		movt	r3, #:upper16:Droop_Filter_Custom_backup
 2381 0010 1B78     		ldrb	r3, [r3, #0]	@ zero_extendqisi2
ARM GAS  C:\DOCUME~1\ADMINI~1\LOCALS~1\Temp\ccCo8Fey.s 			page 64


 2382 0012 012B     		cmp	r3, #1
 2383 0014 01D1     		bne	.L84
1207:.\AudioControl.c ****     {
1208:.\AudioControl.c ****         Droop_Filter_Enable();
 2384              		.loc 1 1208 0
 2385 0016 FFF7FEFF 		bl	Droop_Filter_Enable
 2386              	.L84:
1209:.\AudioControl.c ****     } /* Do nothing if component was disable before */
1210:.\AudioControl.c **** }
 2387              		.loc 1 1210 0
 2388 001a 80BD     		pop	{r7, pc}
 2389              		.cfi_endproc
 2390              	.LFE45:
 2391              		.size	Droop_Filter_ModifiedWakeup, .-Droop_Filter_ModifiedWakeup
 2392              		.section	.text.Droop_Filter_ModifiedLoadReg32,"ax",%progbits
 2393              		.align	2
 2394              		.global	Droop_Filter_ModifiedLoadReg32
 2395              		.thumb
 2396              		.thumb_func
 2397              		.type	Droop_Filter_ModifiedLoadReg32, %function
 2398              	Droop_Filter_ModifiedLoadReg32:
 2399              	.LFB46:
1211:.\AudioControl.c **** 
1212:.\AudioControl.c **** /*******************************************************************************
1213:.\AudioControl.c **** * Function Name: Droop_Filter_ModifiedLoadReg32
1214:.\AudioControl.c **** ********************************************************************************
1215:.\AudioControl.c **** * 
1216:.\AudioControl.c **** * Summary:
1217:.\AudioControl.c **** *  This function loads initial values/data to appropriate registers.  Modified
1218:.\AudioControl.c **** *  name of a private function named Droop_Filter_LoadReg32 in the  Droop_Filter assembler
1219:.\AudioControl.c **** *  component (Droop_Filter.c) added here to support state retention
1220:.\AudioControl.c **** *
1221:.\AudioControl.c **** * Parameters:
1222:.\AudioControl.c **** *  reg32 regAddress[]: register address;
1223:.\AudioControl.c **** *  const uint32 source[]: data for load;
1224:.\AudioControl.c **** *  uint8 count: number of 32-bit registers for load.
1225:.\AudioControl.c **** *
1226:.\AudioControl.c **** * Return:
1227:.\AudioControl.c **** *  None.
1228:.\AudioControl.c **** *
1229:.\AudioControl.c **** * Note:
1230:.\AudioControl.c **** *  Data load starts from "regAddress" address and affects on "count" numbers of
1231:.\AudioControl.c **** *  successive registers.
1232:.\AudioControl.c **** *
1233:.\AudioControl.c **** *******************************************************************************/
1234:.\AudioControl.c **** void Droop_Filter_ModifiedLoadReg32(reg32 regAddress[], const uint32 source[], uint8 count)
1235:.\AudioControl.c **** {
 2400              		.loc 1 1235 0
 2401              		.cfi_startproc
 2402              		@ args = 0, pretend = 0, frame = 24
 2403              		@ frame_needed = 1, uses_anonymous_args = 0
 2404              		@ link register save eliminated.
 2405 0000 80B4     		push	{r7}
 2406              	.LCFI41:
 2407              		.cfi_def_cfa_offset 4
 2408 0002 87B0     		sub	sp, sp, #28
 2409              	.LCFI42:
ARM GAS  C:\DOCUME~1\ADMINI~1\LOCALS~1\Temp\ccCo8Fey.s 			page 65


 2410              		.cfi_def_cfa_offset 32
 2411 0004 00AF     		add	r7, sp, #0
 2412              		.cfi_offset 7, -4
 2413              	.LCFI43:
 2414              		.cfi_def_cfa_register 7
 2415 0006 F860     		str	r0, [r7, #12]
 2416 0008 B960     		str	r1, [r7, #8]
 2417 000a 1346     		mov	r3, r2
 2418 000c FB71     		strb	r3, [r7, #7]
1236:.\AudioControl.c ****     uint8 i = 0u;
 2419              		.loc 1 1236 0
 2420 000e 4FF00003 		mov	r3, #0
 2421 0012 FB75     		strb	r3, [r7, #23]
1237:.\AudioControl.c ****     
1238:.\AudioControl.c ****     while (count > 0u)
 2422              		.loc 1 1238 0
 2423 0014 13E0     		b	.L86
 2424              	.L87:
1239:.\AudioControl.c ****     {
1240:.\AudioControl.c ****         CY_SET_REG32(& regAddress[i], source[i]);
 2425              		.loc 1 1240 0
 2426 0016 FB7D     		ldrb	r3, [r7, #23]	@ zero_extendqisi2
 2427 0018 4FEA8302 		lsl	r2, r3, #2
 2428 001c FB68     		ldr	r3, [r7, #12]
 2429 001e 1344     		add	r3, r2, r3
 2430 0020 FA7D     		ldrb	r2, [r7, #23]	@ zero_extendqisi2
 2431 0022 4FEA8201 		lsl	r1, r2, #2
 2432 0026 BA68     		ldr	r2, [r7, #8]
 2433 0028 0A44     		add	r2, r1, r2
 2434 002a 1268     		ldr	r2, [r2, #0]
 2435 002c 1A60     		str	r2, [r3, #0]
1241:.\AudioControl.c ****         count--;
 2436              		.loc 1 1241 0
 2437 002e FB79     		ldrb	r3, [r7, #7]
 2438 0030 03F1FF33 		add	r3, r3, #-1
 2439 0034 FB71     		strb	r3, [r7, #7]
1242:.\AudioControl.c ****         i++;
 2440              		.loc 1 1242 0
 2441 0036 FB7D     		ldrb	r3, [r7, #23]
 2442 0038 03F10103 		add	r3, r3, #1
 2443 003c FB75     		strb	r3, [r7, #23]
 2444              	.L86:
 2445              		.loc 1 1238 0
 2446 003e FB79     		ldrb	r3, [r7, #7]	@ zero_extendqisi2
 2447 0040 002B     		cmp	r3, #0
 2448 0042 E8D1     		bne	.L87
1243:.\AudioControl.c ****     }
1244:.\AudioControl.c **** }
 2449              		.loc 1 1244 0
 2450 0044 07F11C07 		add	r7, r7, #28
 2451 0048 BD46     		mov	sp, r7
 2452 004a 80BC     		pop	{r7}
 2453 004c 7047     		bx	lr
 2454              		.cfi_endproc
 2455              	.LFE46:
 2456              		.size	Droop_Filter_ModifiedLoadReg32, .-Droop_Filter_ModifiedLoadReg32
 2457 004e 00BF     		.section	.text.Droop_Filter_ModifiedZeroReg32,"ax",%progbits
ARM GAS  C:\DOCUME~1\ADMINI~1\LOCALS~1\Temp\ccCo8Fey.s 			page 66


 2458              		.align	2
 2459              		.global	Droop_Filter_ModifiedZeroReg32
 2460              		.thumb
 2461              		.thumb_func
 2462              		.type	Droop_Filter_ModifiedZeroReg32, %function
 2463              	Droop_Filter_ModifiedZeroReg32:
 2464              	.LFB47:
1245:.\AudioControl.c **** 
1246:.\AudioControl.c **** /*******************************************************************************
1247:.\AudioControl.c **** * Function Name: Droop_Filter_ModifiedZeroReg32
1248:.\AudioControl.c **** ********************************************************************************
1249:.\AudioControl.c **** * 
1250:.\AudioControl.c **** * Summary:
1251:.\AudioControl.c **** *  This function zeroize registers. Modified name of a private function named
1252:.\AudioControl.c **** *  Droop_Filter_ZeroReg32 in the  Droop_Filter assembler component (Droop_Filter.c) added here to s
1253:.\AudioControl.c **** *  state retention
1254:.\AudioControl.c **** *
1255:.\AudioControl.c **** * Parameters:
1256:.\AudioControl.c **** *  reg32 regAddress[]: register address;
1257:.\AudioControl.c **** *  uint8 count: number of 32-bit registers for zeroing.
1258:.\AudioControl.c **** *
1259:.\AudioControl.c **** * Return:
1260:.\AudioControl.c **** *  None.
1261:.\AudioControl.c **** *
1262:.\AudioControl.c **** * Note:
1263:.\AudioControl.c **** *  Zeroing starts from "regAddress" address and affects on "count" numbers of
1264:.\AudioControl.c **** *  successive registers.
1265:.\AudioControl.c **** *
1266:.\AudioControl.c **** *******************************************************************************/
1267:.\AudioControl.c **** void Droop_Filter_ModifiedZeroReg32(reg32 regAddress[], uint8 count)
1268:.\AudioControl.c **** {
 2465              		.loc 1 1268 0
 2466              		.cfi_startproc
 2467              		@ args = 0, pretend = 0, frame = 16
 2468              		@ frame_needed = 1, uses_anonymous_args = 0
 2469              		@ link register save eliminated.
 2470 0000 80B4     		push	{r7}
 2471              	.LCFI44:
 2472              		.cfi_def_cfa_offset 4
 2473 0002 85B0     		sub	sp, sp, #20
 2474              	.LCFI45:
 2475              		.cfi_def_cfa_offset 24
 2476 0004 00AF     		add	r7, sp, #0
 2477              		.cfi_offset 7, -4
 2478              	.LCFI46:
 2479              		.cfi_def_cfa_register 7
 2480 0006 7860     		str	r0, [r7, #4]
 2481 0008 0B46     		mov	r3, r1
 2482 000a FB70     		strb	r3, [r7, #3]
1269:.\AudioControl.c ****     uint8 i = 0u;
 2483              		.loc 1 1269 0
 2484 000c 4FF00003 		mov	r3, #0
 2485 0010 FB73     		strb	r3, [r7, #15]
1270:.\AudioControl.c ****     
1271:.\AudioControl.c ****     while (count > 0u)
 2486              		.loc 1 1271 0
 2487 0012 0FE0     		b	.L90
ARM GAS  C:\DOCUME~1\ADMINI~1\LOCALS~1\Temp\ccCo8Fey.s 			page 67


 2488              	.L91:
1272:.\AudioControl.c ****     {
1273:.\AudioControl.c ****         CY_SET_REG32(& regAddress[i], 0u);
 2489              		.loc 1 1273 0
 2490 0014 FB7B     		ldrb	r3, [r7, #15]	@ zero_extendqisi2
 2491 0016 4FEA8302 		lsl	r2, r3, #2
 2492 001a 7B68     		ldr	r3, [r7, #4]
 2493 001c 1344     		add	r3, r2, r3
 2494 001e 4FF00002 		mov	r2, #0
 2495 0022 1A60     		str	r2, [r3, #0]
1274:.\AudioControl.c ****         count--;
 2496              		.loc 1 1274 0
 2497 0024 FB78     		ldrb	r3, [r7, #3]
 2498 0026 03F1FF33 		add	r3, r3, #-1
 2499 002a FB70     		strb	r3, [r7, #3]
1275:.\AudioControl.c ****         i++;
 2500              		.loc 1 1275 0
 2501 002c FB7B     		ldrb	r3, [r7, #15]
 2502 002e 03F10103 		add	r3, r3, #1
 2503 0032 FB73     		strb	r3, [r7, #15]
 2504              	.L90:
 2505              		.loc 1 1271 0
 2506 0034 FB78     		ldrb	r3, [r7, #3]	@ zero_extendqisi2
 2507 0036 002B     		cmp	r3, #0
 2508 0038 ECD1     		bne	.L91
1276:.\AudioControl.c ****     }
1277:.\AudioControl.c **** }
 2509              		.loc 1 1277 0
 2510 003a 07F11407 		add	r7, r7, #20
 2511 003e BD46     		mov	sp, r7
 2512 0040 80BC     		pop	{r7}
 2513 0042 7047     		bx	lr
 2514              		.cfi_endproc
 2515              	.LFE47:
 2516              		.size	Droop_Filter_ModifiedZeroReg32, .-Droop_Filter_ModifiedZeroReg32
 2517              		.bss
 2518              	rate44_count.3602:
 2519 0017 00       		.space	1
 2520              		.text
 2521              	.Letext0: