ARM GAS  C:\DOCUME~1\ADMINI~1\LOCALS~1\Temp\ccQCx9qE.s 			page 1


   1              		.syntax unified
   2              		.cpu cortex-m3
   3              		.fpu softvfp
   4              		.eabi_attribute 20, 1
   5              		.eabi_attribute 21, 1
   6              		.eabi_attribute 23, 3
   7              		.eabi_attribute 24, 1
   8              		.eabi_attribute 25, 1
   9              		.eabi_attribute 26, 1
  10              		.eabi_attribute 30, 6
  11              		.eabi_attribute 18, 4
  12              		.thumb
  13              		.file	"cyfitter_cfg.c"
  20 0000 EC010000 		.text
  20      0200EA00 
  20      00000201 
  20      FB0E0D00 
  20      01010101 
  21              	.Ltext0:
  22              		.cfi_sections	.debug_frame
  23              		.section	.text.CYMEMZERO,"ax",%progbits
  24              		.align	2
  25              		.thumb
  26              		.thumb_func
  27              		.type	CYMEMZERO, %function
  28              	CYMEMZERO:
  29              	.LFB0:
  30              		.file 1 ".\\Generated_Source\\PSoC5\\cyfitter_cfg.c"
   1:.\Generated_Source\PSoC5/cyfitter_cfg.c **** /*******************************************************************************
   2:.\Generated_Source\PSoC5/cyfitter_cfg.c **** * FILENAME: cyfitter_cfg.c
   3:.\Generated_Source\PSoC5/cyfitter_cfg.c **** * PSoC Creator 2.2 Component Pack 6
   4:.\Generated_Source\PSoC5/cyfitter_cfg.c **** *
   5:.\Generated_Source\PSoC5/cyfitter_cfg.c **** * Description:
   6:.\Generated_Source\PSoC5/cyfitter_cfg.c **** * This file is automatically generated by PSoC Creator with device 
   7:.\Generated_Source\PSoC5/cyfitter_cfg.c **** * initialization code.  Except for the user defined sections in
   8:.\Generated_Source\PSoC5/cyfitter_cfg.c **** * CyClockStartupError(), this file should not be modified.
   9:.\Generated_Source\PSoC5/cyfitter_cfg.c **** *
  10:.\Generated_Source\PSoC5/cyfitter_cfg.c **** ********************************************************************************
  11:.\Generated_Source\PSoC5/cyfitter_cfg.c **** * Copyright 2013, Cypress Semiconductor Corporation.  All rights reserved.
  12:.\Generated_Source\PSoC5/cyfitter_cfg.c **** * You may use this file only in accordance with the license, terms, conditions, 
  13:.\Generated_Source\PSoC5/cyfitter_cfg.c **** * disclaimers, and limitations in the end user license agreement accompanying 
  14:.\Generated_Source\PSoC5/cyfitter_cfg.c **** * the software package with which this file was provided.
  15:.\Generated_Source\PSoC5/cyfitter_cfg.c **** ********************************************************************************/
  16:.\Generated_Source\PSoC5/cyfitter_cfg.c **** 
  17:.\Generated_Source\PSoC5/cyfitter_cfg.c **** #include <string.h>
  18:.\Generated_Source\PSoC5/cyfitter_cfg.c **** #include <cytypes.h>
  19:.\Generated_Source\PSoC5/cyfitter_cfg.c **** #include <cydevice_trm.h>
  20:.\Generated_Source\PSoC5/cyfitter_cfg.c **** #include <cyfitter.h>
  21:.\Generated_Source\PSoC5/cyfitter_cfg.c **** #include <CyLib.h>
  22:.\Generated_Source\PSoC5/cyfitter_cfg.c **** #include <cyfitter_cfg.h>
  23:.\Generated_Source\PSoC5/cyfitter_cfg.c **** 
ARM GAS  C:\DOCUME~1\ADMINI~1\LOCALS~1\Temp\ccQCx9qE.s 			page 2


  24:.\Generated_Source\PSoC5/cyfitter_cfg.c **** /* Clock startup error codes                                                   */
  25:.\Generated_Source\PSoC5/cyfitter_cfg.c **** #define CYCLOCKSTART_NO_ERROR    0u
  26:.\Generated_Source\PSoC5/cyfitter_cfg.c **** #define CYCLOCKSTART_XTAL_ERROR  1u
  27:.\Generated_Source\PSoC5/cyfitter_cfg.c **** #define CYCLOCKSTART_32KHZ_ERROR 2u
  28:.\Generated_Source\PSoC5/cyfitter_cfg.c **** #define CYCLOCKSTART_PLL_ERROR   3u
  29:.\Generated_Source\PSoC5/cyfitter_cfg.c **** 
  30:.\Generated_Source\PSoC5/cyfitter_cfg.c **** #ifdef CY_NEED_CYCLOCKSTARTUPERROR
  31:.\Generated_Source\PSoC5/cyfitter_cfg.c **** /*******************************************************************************
  32:.\Generated_Source\PSoC5/cyfitter_cfg.c **** * Function Name: CyClockStartupError
  33:.\Generated_Source\PSoC5/cyfitter_cfg.c **** ********************************************************************************
  34:.\Generated_Source\PSoC5/cyfitter_cfg.c **** * Summary:
  35:.\Generated_Source\PSoC5/cyfitter_cfg.c **** *  If an error is encountered during clock configuration (crystal startup error,
  36:.\Generated_Source\PSoC5/cyfitter_cfg.c **** *  PLL lock error, etc.), the system will end up here.  Unless reimplemented by
  37:.\Generated_Source\PSoC5/cyfitter_cfg.c **** *  the customer, this function will stop in an infinite loop.
  38:.\Generated_Source\PSoC5/cyfitter_cfg.c **** *
  39:.\Generated_Source\PSoC5/cyfitter_cfg.c **** * Parameters:
  40:.\Generated_Source\PSoC5/cyfitter_cfg.c **** *   void
  41:.\Generated_Source\PSoC5/cyfitter_cfg.c **** *
  42:.\Generated_Source\PSoC5/cyfitter_cfg.c **** * Return:
  43:.\Generated_Source\PSoC5/cyfitter_cfg.c **** *   void
  44:.\Generated_Source\PSoC5/cyfitter_cfg.c **** *
  45:.\Generated_Source\PSoC5/cyfitter_cfg.c **** *******************************************************************************/
  46:.\Generated_Source\PSoC5/cyfitter_cfg.c **** #if defined(__GNUC__) || defined(__ARMCC_VERSION)
  47:.\Generated_Source\PSoC5/cyfitter_cfg.c **** __attribute__ ((unused))
  48:.\Generated_Source\PSoC5/cyfitter_cfg.c **** #endif
  49:.\Generated_Source\PSoC5/cyfitter_cfg.c **** static void CyClockStartupError(uint8 errorCode);
  50:.\Generated_Source\PSoC5/cyfitter_cfg.c **** #if defined(__GNUC__) || defined(__ARMCC_VERSION)
  51:.\Generated_Source\PSoC5/cyfitter_cfg.c **** __attribute__ ((unused))
  52:.\Generated_Source\PSoC5/cyfitter_cfg.c **** #endif
  53:.\Generated_Source\PSoC5/cyfitter_cfg.c **** static void CyClockStartupError(uint8 errorCode)
  54:.\Generated_Source\PSoC5/cyfitter_cfg.c **** {
  55:.\Generated_Source\PSoC5/cyfitter_cfg.c ****     /* To remove the compiler warning if errorCode not used.                */
  56:.\Generated_Source\PSoC5/cyfitter_cfg.c ****     errorCode = errorCode;
  57:.\Generated_Source\PSoC5/cyfitter_cfg.c **** 
  58:.\Generated_Source\PSoC5/cyfitter_cfg.c ****     /* `#START CyClockStartupError` */
  59:.\Generated_Source\PSoC5/cyfitter_cfg.c **** 
  60:.\Generated_Source\PSoC5/cyfitter_cfg.c ****     /* If we have a clock startup error (bad MHz crystal, PLL lock, etc.),  */
  61:.\Generated_Source\PSoC5/cyfitter_cfg.c ****     /* we will end up here to allow the customer to implement something to  */
  62:.\Generated_Source\PSoC5/cyfitter_cfg.c ****     /* deal with the clock condition.                                       */
  63:.\Generated_Source\PSoC5/cyfitter_cfg.c **** 
  64:.\Generated_Source\PSoC5/cyfitter_cfg.c ****     /* `#END` */
  65:.\Generated_Source\PSoC5/cyfitter_cfg.c **** 
  66:.\Generated_Source\PSoC5/cyfitter_cfg.c ****     /* If nothing else, stop here since the clocks have not started         */
  67:.\Generated_Source\PSoC5/cyfitter_cfg.c ****     /* correctly.                                                           */
  68:.\Generated_Source\PSoC5/cyfitter_cfg.c ****     while(1) {}
  69:.\Generated_Source\PSoC5/cyfitter_cfg.c **** }
  70:.\Generated_Source\PSoC5/cyfitter_cfg.c **** #endif
  71:.\Generated_Source\PSoC5/cyfitter_cfg.c **** 
  72:.\Generated_Source\PSoC5/cyfitter_cfg.c **** 
  73:.\Generated_Source\PSoC5/cyfitter_cfg.c **** #if defined(__GNUC__) || defined(__ARMCC_VERSION)
  74:.\Generated_Source\PSoC5/cyfitter_cfg.c **** 	#define CYPACKED __attribute__ ((packed))
  75:.\Generated_Source\PSoC5/cyfitter_cfg.c **** 	#define CYALIGNED __attribute__ ((aligned))
  76:.\Generated_Source\PSoC5/cyfitter_cfg.c **** 	
  77:.\Generated_Source\PSoC5/cyfitter_cfg.c **** 	#if defined(__ARMCC_VERSION)
  78:.\Generated_Source\PSoC5/cyfitter_cfg.c **** 		#define CY_CFG_MEMORY_BARRIER() __memory_changed()
  79:.\Generated_Source\PSoC5/cyfitter_cfg.c **** 	#else
  80:.\Generated_Source\PSoC5/cyfitter_cfg.c **** 		#define CY_CFG_MEMORY_BARRIER() __sync_synchronize()
ARM GAS  C:\DOCUME~1\ADMINI~1\LOCALS~1\Temp\ccQCx9qE.s 			page 3


  81:.\Generated_Source\PSoC5/cyfitter_cfg.c **** 	#endif
  82:.\Generated_Source\PSoC5/cyfitter_cfg.c **** 	
  83:.\Generated_Source\PSoC5/cyfitter_cfg.c **** 
  84:.\Generated_Source\PSoC5/cyfitter_cfg.c **** 	__attribute__ ((unused))
  85:.\Generated_Source\PSoC5/cyfitter_cfg.c **** 	static void CYMEMZERO(void *s, size_t n);
  86:.\Generated_Source\PSoC5/cyfitter_cfg.c **** 	__attribute__ ((unused))
  87:.\Generated_Source\PSoC5/cyfitter_cfg.c **** 	static void CYMEMZERO(void *s, size_t n)
  88:.\Generated_Source\PSoC5/cyfitter_cfg.c **** 	{
  31              		.loc 1 88 0
  32              		.cfi_startproc
  33              		@ args = 0, pretend = 0, frame = 8
  34              		@ frame_needed = 1, uses_anonymous_args = 0
  35 0000 80B5     		push	{r7, lr}
  36              	.LCFI0:
  37              		.cfi_def_cfa_offset 8
  38 0002 82B0     		sub	sp, sp, #8
  39              	.LCFI1:
  40              		.cfi_def_cfa_offset 16
  41 0004 00AF     		add	r7, sp, #0
  42              		.cfi_offset 14, -4
  43              		.cfi_offset 7, -8
  44              	.LCFI2:
  45              		.cfi_def_cfa_register 7
  46 0006 7860     		str	r0, [r7, #4]
  47 0008 3960     		str	r1, [r7, #0]
  89:.\Generated_Source\PSoC5/cyfitter_cfg.c **** 		(void)memset(s, 0, n);
  48              		.loc 1 89 0
  49 000a 7868     		ldr	r0, [r7, #4]
  50 000c 4FF00001 		mov	r1, #0
  51 0010 3A68     		ldr	r2, [r7, #0]
  52 0012 FFF7FEFF 		bl	memset
  90:.\Generated_Source\PSoC5/cyfitter_cfg.c **** 	}
  53              		.loc 1 90 0
  54 0016 07F10807 		add	r7, r7, #8
  55 001a BD46     		mov	sp, r7
  56 001c 80BD     		pop	{r7, pc}
  57              		.cfi_endproc
  58              	.LFE0:
  59              		.size	CYMEMZERO, .-CYMEMZERO
  60 001e 00BF     		.section	.text.CYCONFIGCPY,"ax",%progbits
  61              		.align	2
  62              		.thumb
  63              		.thumb_func
  64              		.type	CYCONFIGCPY, %function
  65              	CYCONFIGCPY:
  66              	.LFB1:
  91:.\Generated_Source\PSoC5/cyfitter_cfg.c **** 	__attribute__ ((unused))
  92:.\Generated_Source\PSoC5/cyfitter_cfg.c **** 	static void CYCONFIGCPY(void *dest, const void *src, size_t n);
  93:.\Generated_Source\PSoC5/cyfitter_cfg.c **** 	__attribute__ ((unused))
  94:.\Generated_Source\PSoC5/cyfitter_cfg.c **** 	static void CYCONFIGCPY(void *dest, const void *src, size_t n)
  95:.\Generated_Source\PSoC5/cyfitter_cfg.c **** 	{
  67              		.loc 1 95 0
  68              		.cfi_startproc
  69              		@ args = 0, pretend = 0, frame = 16
  70              		@ frame_needed = 1, uses_anonymous_args = 0
  71 0000 80B5     		push	{r7, lr}
  72              	.LCFI3:
ARM GAS  C:\DOCUME~1\ADMINI~1\LOCALS~1\Temp\ccQCx9qE.s 			page 4


  73              		.cfi_def_cfa_offset 8
  74 0002 84B0     		sub	sp, sp, #16
  75              	.LCFI4:
  76              		.cfi_def_cfa_offset 24
  77 0004 00AF     		add	r7, sp, #0
  78              		.cfi_offset 14, -4
  79              		.cfi_offset 7, -8
  80              	.LCFI5:
  81              		.cfi_def_cfa_register 7
  82 0006 F860     		str	r0, [r7, #12]
  83 0008 B960     		str	r1, [r7, #8]
  84 000a 7A60     		str	r2, [r7, #4]
  96:.\Generated_Source\PSoC5/cyfitter_cfg.c **** 		(void)memcpy(dest, src, n);
  85              		.loc 1 96 0
  86 000c F868     		ldr	r0, [r7, #12]
  87 000e B968     		ldr	r1, [r7, #8]
  88 0010 7A68     		ldr	r2, [r7, #4]
  89 0012 FFF7FEFF 		bl	memcpy
  97:.\Generated_Source\PSoC5/cyfitter_cfg.c **** 	}
  90              		.loc 1 97 0
  91 0016 07F11007 		add	r7, r7, #16
  92 001a BD46     		mov	sp, r7
  93 001c 80BD     		pop	{r7, pc}
  94              		.cfi_endproc
  95              	.LFE1:
  96              		.size	CYCONFIGCPY, .-CYCONFIGCPY
  97 001e 00BF     		.section	.text.CYCONFIGCPYCODE,"ax",%progbits
  98              		.align	2
  99              		.thumb
 100              		.thumb_func
 101              		.type	CYCONFIGCPYCODE, %function
 102              	CYCONFIGCPYCODE:
 103              	.LFB2:
  98:.\Generated_Source\PSoC5/cyfitter_cfg.c **** 	__attribute__ ((unused))
  99:.\Generated_Source\PSoC5/cyfitter_cfg.c **** 	static void CYCONFIGCPYCODE(void *dest, const void *src, size_t n);
 100:.\Generated_Source\PSoC5/cyfitter_cfg.c **** 	__attribute__ ((unused))
 101:.\Generated_Source\PSoC5/cyfitter_cfg.c **** 	static void CYCONFIGCPYCODE(void *dest, const void *src, size_t n)
 102:.\Generated_Source\PSoC5/cyfitter_cfg.c **** 	{
 104              		.loc 1 102 0
 105              		.cfi_startproc
 106              		@ args = 0, pretend = 0, frame = 16
 107              		@ frame_needed = 1, uses_anonymous_args = 0
 108 0000 80B5     		push	{r7, lr}
 109              	.LCFI6:
 110              		.cfi_def_cfa_offset 8
 111 0002 84B0     		sub	sp, sp, #16
 112              	.LCFI7:
 113              		.cfi_def_cfa_offset 24
 114 0004 00AF     		add	r7, sp, #0
 115              		.cfi_offset 14, -4
 116              		.cfi_offset 7, -8
 117              	.LCFI8:
 118              		.cfi_def_cfa_register 7
 119 0006 F860     		str	r0, [r7, #12]
 120 0008 B960     		str	r1, [r7, #8]
 121 000a 7A60     		str	r2, [r7, #4]
 103:.\Generated_Source\PSoC5/cyfitter_cfg.c **** 		(void)memcpy(dest, src, n);
ARM GAS  C:\DOCUME~1\ADMINI~1\LOCALS~1\Temp\ccQCx9qE.s 			page 5


 122              		.loc 1 103 0
 123 000c F868     		ldr	r0, [r7, #12]
 124 000e B968     		ldr	r1, [r7, #8]
 125 0010 7A68     		ldr	r2, [r7, #4]
 126 0012 FFF7FEFF 		bl	memcpy
 104:.\Generated_Source\PSoC5/cyfitter_cfg.c **** 	}
 127              		.loc 1 104 0
 128 0016 07F11007 		add	r7, r7, #16
 129 001a BD46     		mov	sp, r7
 130 001c 80BD     		pop	{r7, pc}
 131              		.cfi_endproc
 132              	.LFE2:
 133              		.size	CYCONFIGCPYCODE, .-CYCONFIGCPYCODE
 134 001e 00BF     		.section	.text.cfg_write_bytes32,"ax",%progbits
 135              		.align	2
 136              		.thumb
 137              		.thumb_func
 138              		.type	cfg_write_bytes32, %function
 139              	cfg_write_bytes32:
 140              	.LFB3:
 105:.\Generated_Source\PSoC5/cyfitter_cfg.c **** #else
 106:.\Generated_Source\PSoC5/cyfitter_cfg.c **** 	#error Unsupported toolchain
 107:.\Generated_Source\PSoC5/cyfitter_cfg.c **** #endif
 108:.\Generated_Source\PSoC5/cyfitter_cfg.c **** 
 109:.\Generated_Source\PSoC5/cyfitter_cfg.c **** #define CY_CFG_BASE_ADDR_COUNT 38u
 110:.\Generated_Source\PSoC5/cyfitter_cfg.c **** typedef struct
 111:.\Generated_Source\PSoC5/cyfitter_cfg.c **** {
 112:.\Generated_Source\PSoC5/cyfitter_cfg.c **** 	uint8 offset;
 113:.\Generated_Source\PSoC5/cyfitter_cfg.c **** 	uint8 value;
 114:.\Generated_Source\PSoC5/cyfitter_cfg.c **** } CYPACKED cy_cfg_addrvalue_t;
 115:.\Generated_Source\PSoC5/cyfitter_cfg.c **** 
 116:.\Generated_Source\PSoC5/cyfitter_cfg.c **** #define cy_cfg_addr_table ((const uint32 CYFAR *)0x48000000u)
 117:.\Generated_Source\PSoC5/cyfitter_cfg.c **** #define cy_cfg_data_table ((const cy_cfg_addrvalue_t CYFAR *)0x48000098u)
 118:.\Generated_Source\PSoC5/cyfitter_cfg.c **** 
 119:.\Generated_Source\PSoC5/cyfitter_cfg.c **** /* IDMUX Address: CYREG_IDMUX_DRQ_CTL0 Size (bytes): 6 */
 120:.\Generated_Source\PSoC5/cyfitter_cfg.c **** #define BS_IDMUX_VAL ((const uint8 CYFAR *)0x480012D4u)
 121:.\Generated_Source\PSoC5/cyfitter_cfg.c **** 
 122:.\Generated_Source\PSoC5/cyfitter_cfg.c **** /* IDMUX_IRQ Address: CYREG_IDMUX_IRQ_CTL0 Size (bytes): 8 */
 123:.\Generated_Source\PSoC5/cyfitter_cfg.c **** #define BS_IDMUX_IRQ_VAL ((const uint8 CYFAR *)0x480012DCu)
 124:.\Generated_Source\PSoC5/cyfitter_cfg.c **** 
 125:.\Generated_Source\PSoC5/cyfitter_cfg.c **** /* UCFG_BCTL0 Address: CYREG_BCTL0_MDCLK_EN Size (bytes): 16 */
 126:.\Generated_Source\PSoC5/cyfitter_cfg.c **** #define BS_UCFG_BCTL0_VAL ((const uint8 CYFAR *)0x480012E4u)
 127:.\Generated_Source\PSoC5/cyfitter_cfg.c **** 
 128:.\Generated_Source\PSoC5/cyfitter_cfg.c **** /* IOPINS0_0 Address: CYREG_PRT0_DM0 Size (bytes): 8 */
 129:.\Generated_Source\PSoC5/cyfitter_cfg.c **** #define BS_IOPINS0_0_VAL ((const uint8 CYFAR *)0x480012F4u)
 130:.\Generated_Source\PSoC5/cyfitter_cfg.c **** 
 131:.\Generated_Source\PSoC5/cyfitter_cfg.c **** /* IOPINS0_7 Address: CYREG_PRT12_DM0 Size (bytes): 8 */
 132:.\Generated_Source\PSoC5/cyfitter_cfg.c **** #define BS_IOPINS0_7_VAL ((const uint8 CYFAR *)0x480012FCu)
 133:.\Generated_Source\PSoC5/cyfitter_cfg.c **** 
 134:.\Generated_Source\PSoC5/cyfitter_cfg.c **** /* IOPINS0_8 Address: CYREG_PRT15_DR Size (bytes): 10 */
 135:.\Generated_Source\PSoC5/cyfitter_cfg.c **** #define BS_IOPINS0_8_VAL ((const uint8 CYFAR *)0x48001304u)
 136:.\Generated_Source\PSoC5/cyfitter_cfg.c **** 
 137:.\Generated_Source\PSoC5/cyfitter_cfg.c **** /* IOPINS0_1 Address: CYREG_PRT1_DR Size (bytes): 10 */
 138:.\Generated_Source\PSoC5/cyfitter_cfg.c **** #define BS_IOPINS0_1_VAL ((const uint8 CYFAR *)0x48001310u)
 139:.\Generated_Source\PSoC5/cyfitter_cfg.c **** 
 140:.\Generated_Source\PSoC5/cyfitter_cfg.c **** /* IOPINS0_2 Address: CYREG_PRT2_DR Size (bytes): 10 */
 141:.\Generated_Source\PSoC5/cyfitter_cfg.c **** #define BS_IOPINS0_2_VAL ((const uint8 CYFAR *)0x4800131Cu)
ARM GAS  C:\DOCUME~1\ADMINI~1\LOCALS~1\Temp\ccQCx9qE.s 			page 6


 142:.\Generated_Source\PSoC5/cyfitter_cfg.c **** 
 143:.\Generated_Source\PSoC5/cyfitter_cfg.c **** /* IOPINS0_3 Address: CYREG_PRT3_DR Size (bytes): 10 */
 144:.\Generated_Source\PSoC5/cyfitter_cfg.c **** #define BS_IOPINS0_3_VAL ((const uint8 CYFAR *)0x48001328u)
 145:.\Generated_Source\PSoC5/cyfitter_cfg.c **** 
 146:.\Generated_Source\PSoC5/cyfitter_cfg.c **** /* PHUB_CFGMEM11 Address: CYREG_PHUB_CFGMEM11_CFG0 Size (bytes): 4 */
 147:.\Generated_Source\PSoC5/cyfitter_cfg.c **** #define BS_PHUB_CFGMEM11_VAL ((const uint8 CYFAR *)0x48001334u)
 148:.\Generated_Source\PSoC5/cyfitter_cfg.c **** 
 149:.\Generated_Source\PSoC5/cyfitter_cfg.c **** /* PHUB_CFGMEM12 Address: CYREG_PHUB_CFGMEM12_CFG0 Size (bytes): 4 */
 150:.\Generated_Source\PSoC5/cyfitter_cfg.c **** #define BS_PHUB_CFGMEM12_VAL ((const uint8 CYFAR *)0x48001338u)
 151:.\Generated_Source\PSoC5/cyfitter_cfg.c **** 
 152:.\Generated_Source\PSoC5/cyfitter_cfg.c **** /* PHUB_CFGMEM13 Address: CYREG_PHUB_CFGMEM13_CFG0 Size (bytes): 4 */
 153:.\Generated_Source\PSoC5/cyfitter_cfg.c **** #define BS_PHUB_CFGMEM13_VAL ((const uint8 CYFAR *)0x4800133Cu)
 154:.\Generated_Source\PSoC5/cyfitter_cfg.c **** 
 155:.\Generated_Source\PSoC5/cyfitter_cfg.c **** /* PHUB_CFGMEM14 Address: CYREG_PHUB_CFGMEM14_CFG0 Size (bytes): 4 */
 156:.\Generated_Source\PSoC5/cyfitter_cfg.c **** #define BS_PHUB_CFGMEM14_VAL ((const uint8 CYFAR *)0x48001340u)
 157:.\Generated_Source\PSoC5/cyfitter_cfg.c **** 
 158:.\Generated_Source\PSoC5/cyfitter_cfg.c **** /* PHUB_CFGMEM2 Address: CYREG_PHUB_CFGMEM2_CFG0 Size (bytes): 4 */
 159:.\Generated_Source\PSoC5/cyfitter_cfg.c **** #define BS_PHUB_CFGMEM2_VAL ((const uint8 CYFAR *)0x48001344u)
 160:.\Generated_Source\PSoC5/cyfitter_cfg.c **** 
 161:.\Generated_Source\PSoC5/cyfitter_cfg.c **** /* PHUB_CFGMEM4 Address: CYREG_PHUB_CFGMEM4_CFG0 Size (bytes): 4 */
 162:.\Generated_Source\PSoC5/cyfitter_cfg.c **** #define BS_PHUB_CFGMEM4_VAL ((const uint8 CYFAR *)0x48001348u)
 163:.\Generated_Source\PSoC5/cyfitter_cfg.c **** 
 164:.\Generated_Source\PSoC5/cyfitter_cfg.c **** /* PHUB_CFGMEM8 Address: CYREG_PHUB_CFGMEM8_CFG0 Size (bytes): 4 */
 165:.\Generated_Source\PSoC5/cyfitter_cfg.c **** #define BS_PHUB_CFGMEM8_VAL ((const uint8 CYFAR *)0x4800134Cu)
 166:.\Generated_Source\PSoC5/cyfitter_cfg.c **** 
 167:.\Generated_Source\PSoC5/cyfitter_cfg.c **** 
 168:.\Generated_Source\PSoC5/cyfitter_cfg.c **** /*******************************************************************************
 169:.\Generated_Source\PSoC5/cyfitter_cfg.c **** * Function Name: cfg_write_bytes32
 170:.\Generated_Source\PSoC5/cyfitter_cfg.c **** ********************************************************************************
 171:.\Generated_Source\PSoC5/cyfitter_cfg.c **** * Summary:
 172:.\Generated_Source\PSoC5/cyfitter_cfg.c **** *  This function is used for setting up the chip configuration areas that
 173:.\Generated_Source\PSoC5/cyfitter_cfg.c **** *  contain relatively sparse data.
 174:.\Generated_Source\PSoC5/cyfitter_cfg.c **** *
 175:.\Generated_Source\PSoC5/cyfitter_cfg.c **** * Parameters:
 176:.\Generated_Source\PSoC5/cyfitter_cfg.c **** *   void
 177:.\Generated_Source\PSoC5/cyfitter_cfg.c **** *
 178:.\Generated_Source\PSoC5/cyfitter_cfg.c **** * Return:
 179:.\Generated_Source\PSoC5/cyfitter_cfg.c **** *   void
 180:.\Generated_Source\PSoC5/cyfitter_cfg.c **** *
 181:.\Generated_Source\PSoC5/cyfitter_cfg.c **** *******************************************************************************/
 182:.\Generated_Source\PSoC5/cyfitter_cfg.c **** static void cfg_write_bytes32(const uint32 addr_table[], const cy_cfg_addrvalue_t data_table[]);
 183:.\Generated_Source\PSoC5/cyfitter_cfg.c **** static void cfg_write_bytes32(const uint32 addr_table[], const cy_cfg_addrvalue_t data_table[])
 184:.\Generated_Source\PSoC5/cyfitter_cfg.c **** {
 141              		.loc 1 184 0
 142              		.cfi_startproc
 143              		@ args = 0, pretend = 0, frame = 24
 144              		@ frame_needed = 1, uses_anonymous_args = 0
 145              		@ link register save eliminated.
 146 0000 80B4     		push	{r7}
 147              	.LCFI9:
 148              		.cfi_def_cfa_offset 4
 149 0002 87B0     		sub	sp, sp, #28
 150              	.LCFI10:
 151              		.cfi_def_cfa_offset 32
 152 0004 00AF     		add	r7, sp, #0
 153              		.cfi_offset 7, -4
 154              	.LCFI11:
ARM GAS  C:\DOCUME~1\ADMINI~1\LOCALS~1\Temp\ccQCx9qE.s 			page 7


 155              		.cfi_def_cfa_register 7
 156 0006 7860     		str	r0, [r7, #4]
 157 0008 3960     		str	r1, [r7, #0]
 185:.\Generated_Source\PSoC5/cyfitter_cfg.c **** 	/* For 32-bit little-endian architectures */
 186:.\Generated_Source\PSoC5/cyfitter_cfg.c **** 	uint32 i, j = 0u;
 158              		.loc 1 186 0
 159 000a 4FF00003 		mov	r3, #0
 160 000e FB60     		str	r3, [r7, #12]
 187:.\Generated_Source\PSoC5/cyfitter_cfg.c **** 	for (i = 0u; i < CY_CFG_BASE_ADDR_COUNT; i++)
 161              		.loc 1 187 0
 162 0010 4FF00003 		mov	r3, #0
 163 0014 BB60     		str	r3, [r7, #8]
 164 0016 2CE0     		b	.L8
 165              	.L11:
 166              	.LBB2:
 188:.\Generated_Source\PSoC5/cyfitter_cfg.c **** 	{
 189:.\Generated_Source\PSoC5/cyfitter_cfg.c **** 		uint32 baseAddr = addr_table[i];
 167              		.loc 1 189 0
 168 0018 BB68     		ldr	r3, [r7, #8]
 169 001a 4FEA8302 		lsl	r2, r3, #2
 170 001e 7B68     		ldr	r3, [r7, #4]
 171 0020 1344     		add	r3, r2, r3
 172 0022 1B68     		ldr	r3, [r3, #0]
 173 0024 3B61     		str	r3, [r7, #16]
 190:.\Generated_Source\PSoC5/cyfitter_cfg.c **** 		uint8 count = (uint8)baseAddr;
 174              		.loc 1 190 0
 175 0026 3B69     		ldr	r3, [r7, #16]
 176 0028 FB75     		strb	r3, [r7, #23]
 191:.\Generated_Source\PSoC5/cyfitter_cfg.c **** 		baseAddr &= 0xFFFFFF00u;
 177              		.loc 1 191 0
 178 002a 3B69     		ldr	r3, [r7, #16]
 179 002c 23F0FF03 		bic	r3, r3, #255
 180 0030 3B61     		str	r3, [r7, #16]
 192:.\Generated_Source\PSoC5/cyfitter_cfg.c **** 		while (count != 0u)
 181              		.loc 1 192 0
 182 0032 17E0     		b	.L9
 183              	.L10:
 193:.\Generated_Source\PSoC5/cyfitter_cfg.c **** 		{
 194:.\Generated_Source\PSoC5/cyfitter_cfg.c **** 			CY_SET_XTND_REG8((void CYFAR *)(baseAddr + data_table[j].offset), data_table[j].value);
 184              		.loc 1 194 0
 185 0034 FB68     		ldr	r3, [r7, #12]
 186 0036 4FEA4302 		lsl	r2, r3, #1
 187 003a 3B68     		ldr	r3, [r7, #0]
 188 003c 1344     		add	r3, r2, r3
 189 003e 1B78     		ldrb	r3, [r3, #0]	@ zero_extendqisi2
 190 0040 1A46     		mov	r2, r3
 191 0042 3B69     		ldr	r3, [r7, #16]
 192 0044 1344     		add	r3, r2, r3
 193 0046 FA68     		ldr	r2, [r7, #12]
 194 0048 4FEA4201 		lsl	r1, r2, #1
 195 004c 3A68     		ldr	r2, [r7, #0]
 196 004e 0A44     		add	r2, r1, r2
 197 0050 5278     		ldrb	r2, [r2, #1]	@ zero_extendqisi2
 198 0052 1A70     		strb	r2, [r3, #0]
 195:.\Generated_Source\PSoC5/cyfitter_cfg.c **** 			j++;
 199              		.loc 1 195 0
 200 0054 FB68     		ldr	r3, [r7, #12]
ARM GAS  C:\DOCUME~1\ADMINI~1\LOCALS~1\Temp\ccQCx9qE.s 			page 8


 201 0056 03F10103 		add	r3, r3, #1
 202 005a FB60     		str	r3, [r7, #12]
 196:.\Generated_Source\PSoC5/cyfitter_cfg.c **** 			count--;
 203              		.loc 1 196 0
 204 005c FB7D     		ldrb	r3, [r7, #23]
 205 005e 03F1FF33 		add	r3, r3, #-1
 206 0062 FB75     		strb	r3, [r7, #23]
 207              	.L9:
 208              		.loc 1 192 0
 209 0064 FB7D     		ldrb	r3, [r7, #23]	@ zero_extendqisi2
 210 0066 002B     		cmp	r3, #0
 211 0068 E4D1     		bne	.L10
 212              	.LBE2:
 213              		.loc 1 187 0
 214 006a BB68     		ldr	r3, [r7, #8]
 215 006c 03F10103 		add	r3, r3, #1
 216 0070 BB60     		str	r3, [r7, #8]
 217              	.L8:
 218 0072 BB68     		ldr	r3, [r7, #8]
 219 0074 252B     		cmp	r3, #37
 220 0076 CFD9     		bls	.L11
 197:.\Generated_Source\PSoC5/cyfitter_cfg.c **** 		}
 198:.\Generated_Source\PSoC5/cyfitter_cfg.c **** 	}
 199:.\Generated_Source\PSoC5/cyfitter_cfg.c **** }
 221              		.loc 1 199 0
 222 0078 07F11C07 		add	r7, r7, #28
 223 007c BD46     		mov	sp, r7
 224 007e 80BC     		pop	{r7}
 225 0080 7047     		bx	lr
 226              		.cfi_endproc
 227              	.LFE3:
 228              		.size	cfg_write_bytes32, .-cfg_write_bytes32
 229 0082 00BF     		.section	.text.ClockSetup,"ax",%progbits
 230              		.align	2
 231              		.thumb
 232              		.thumb_func
 233              		.type	ClockSetup, %function
 234              	ClockSetup:
 235              	.LFB4:
 200:.\Generated_Source\PSoC5/cyfitter_cfg.c **** 
 201:.\Generated_Source\PSoC5/cyfitter_cfg.c **** /*******************************************************************************
 202:.\Generated_Source\PSoC5/cyfitter_cfg.c **** * Function Name: ClockSetup
 203:.\Generated_Source\PSoC5/cyfitter_cfg.c **** ********************************************************************************
 204:.\Generated_Source\PSoC5/cyfitter_cfg.c **** *
 205:.\Generated_Source\PSoC5/cyfitter_cfg.c **** * Summary:
 206:.\Generated_Source\PSoC5/cyfitter_cfg.c **** *  Performs the initialization of all of the clocks in the device based on the
 207:.\Generated_Source\PSoC5/cyfitter_cfg.c **** *  settings in the Clock tab of the DWR.  This includes enabling the requested
 208:.\Generated_Source\PSoC5/cyfitter_cfg.c **** *  clocks and setting the necessary dividers to produce the desired frequency. 
 209:.\Generated_Source\PSoC5/cyfitter_cfg.c **** *
 210:.\Generated_Source\PSoC5/cyfitter_cfg.c **** * Parameters:
 211:.\Generated_Source\PSoC5/cyfitter_cfg.c **** *  void
 212:.\Generated_Source\PSoC5/cyfitter_cfg.c **** *
 213:.\Generated_Source\PSoC5/cyfitter_cfg.c **** * Return:
 214:.\Generated_Source\PSoC5/cyfitter_cfg.c **** *  void
 215:.\Generated_Source\PSoC5/cyfitter_cfg.c **** *
 216:.\Generated_Source\PSoC5/cyfitter_cfg.c **** *******************************************************************************/
 217:.\Generated_Source\PSoC5/cyfitter_cfg.c **** static void ClockSetup(void);
ARM GAS  C:\DOCUME~1\ADMINI~1\LOCALS~1\Temp\ccQCx9qE.s 			page 9


 218:.\Generated_Source\PSoC5/cyfitter_cfg.c **** static void ClockSetup(void)
 219:.\Generated_Source\PSoC5/cyfitter_cfg.c **** {
 236              		.loc 1 219 0
 237              		.cfi_startproc
 238              		@ args = 0, pretend = 0, frame = 8
 239              		@ frame_needed = 1, uses_anonymous_args = 0
 240 0000 80B5     		push	{r7, lr}
 241              	.LCFI12:
 242              		.cfi_def_cfa_offset 8
 243 0002 82B0     		sub	sp, sp, #8
 244              	.LCFI13:
 245              		.cfi_def_cfa_offset 16
 246 0004 00AF     		add	r7, sp, #0
 247              		.cfi_offset 14, -4
 248              		.cfi_offset 7, -8
 249              	.LCFI14:
 250              		.cfi_def_cfa_register 7
 220:.\Generated_Source\PSoC5/cyfitter_cfg.c **** 	uint32 timeout;
 221:.\Generated_Source\PSoC5/cyfitter_cfg.c **** 	uint8 pllLock;
 222:.\Generated_Source\PSoC5/cyfitter_cfg.c **** 
 223:.\Generated_Source\PSoC5/cyfitter_cfg.c **** 
 224:.\Generated_Source\PSoC5/cyfitter_cfg.c **** 	/* Configure Digital Clocks based on settings from Clock DWR */
 225:.\Generated_Source\PSoC5/cyfitter_cfg.c **** 	CY_SET_XTND_REG16((void CYFAR *)(CYREG_CLKDIST_DCFG0_CFG0), 0x0001u);
 251              		.loc 1 225 0
 252 0006 44F28003 		movw	r3, #:lower16:1073758336
 253 000a C4F20003 		movt	r3, #:upper16:1073758336
 254 000e 4FF00102 		mov	r2, #1
 255 0012 1A80     		strh	r2, [r3, #0]	@ movhi
 226:.\Generated_Source\PSoC5/cyfitter_cfg.c **** 	CY_SET_XTND_REG8((void CYFAR *)(CYREG_CLKDIST_DCFG0_CFG0 + 0x2u), 0x1Cu);
 256              		.loc 1 226 0
 257 0014 44F28203 		movw	r3, #:lower16:1073758338
 258 0018 C4F20003 		movt	r3, #:upper16:1073758338
 259 001c 4FF01C02 		mov	r2, #28
 260 0020 1A70     		strb	r2, [r3, #0]
 227:.\Generated_Source\PSoC5/cyfitter_cfg.c **** 	CY_SET_XTND_REG16((void CYFAR *)(CYREG_CLKDIST_DCFG1_CFG0), 0x0003u);
 261              		.loc 1 227 0
 262 0022 44F28403 		movw	r3, #:lower16:1073758340
 263 0026 C4F20003 		movt	r3, #:upper16:1073758340
 264 002a 4FF00302 		mov	r2, #3
 265 002e 1A80     		strh	r2, [r3, #0]	@ movhi
 228:.\Generated_Source\PSoC5/cyfitter_cfg.c **** 	CY_SET_XTND_REG8((void CYFAR *)(CYREG_CLKDIST_DCFG1_CFG0 + 0x2u), 0x1Cu);
 266              		.loc 1 228 0
 267 0030 44F28603 		movw	r3, #:lower16:1073758342
 268 0034 C4F20003 		movt	r3, #:upper16:1073758342
 269 0038 4FF01C02 		mov	r2, #28
 270 003c 1A70     		strb	r2, [r3, #0]
 229:.\Generated_Source\PSoC5/cyfitter_cfg.c **** 	CY_SET_XTND_REG16((void CYFAR *)(CYREG_CLKDIST_DCFG2_CFG0), 0x0007u);
 271              		.loc 1 229 0
 272 003e 44F28803 		movw	r3, #:lower16:1073758344
 273 0042 C4F20003 		movt	r3, #:upper16:1073758344
 274 0046 4FF00702 		mov	r2, #7
 275 004a 1A80     		strh	r2, [r3, #0]	@ movhi
 230:.\Generated_Source\PSoC5/cyfitter_cfg.c **** 	CY_SET_XTND_REG8((void CYFAR *)(CYREG_CLKDIST_DCFG2_CFG0 + 0x2u), 0x1Cu);
 276              		.loc 1 230 0
 277 004c 44F28A03 		movw	r3, #:lower16:1073758346
 278 0050 C4F20003 		movt	r3, #:upper16:1073758346
 279 0054 4FF01C02 		mov	r2, #28
ARM GAS  C:\DOCUME~1\ADMINI~1\LOCALS~1\Temp\ccQCx9qE.s 			page 10


 280 0058 1A70     		strb	r2, [r3, #0]
 231:.\Generated_Source\PSoC5/cyfitter_cfg.c **** 	CY_SET_XTND_REG16((void CYFAR *)(CYREG_CLKDIST_DCFG3_CFG0), 0x0000u);
 281              		.loc 1 231 0
 282 005a 44F28C03 		movw	r3, #:lower16:1073758348
 283 005e C4F20003 		movt	r3, #:upper16:1073758348
 284 0062 4FF00002 		mov	r2, #0
 285 0066 1A80     		strh	r2, [r3, #0]	@ movhi
 232:.\Generated_Source\PSoC5/cyfitter_cfg.c **** 	CY_SET_XTND_REG8((void CYFAR *)(CYREG_CLKDIST_DCFG3_CFG0 + 0x2u), 0x11u);
 286              		.loc 1 232 0
 287 0068 44F28E03 		movw	r3, #:lower16:1073758350
 288 006c C4F20003 		movt	r3, #:upper16:1073758350
 289 0070 4FF01102 		mov	r2, #17
 290 0074 1A70     		strb	r2, [r3, #0]
 233:.\Generated_Source\PSoC5/cyfitter_cfg.c **** 
 234:.\Generated_Source\PSoC5/cyfitter_cfg.c **** 	/* Configure ILO based on settings from Clock DWR */
 235:.\Generated_Source\PSoC5/cyfitter_cfg.c **** 	CY_SET_XTND_REG8((void CYFAR *)(CYREG_SLOWCLK_ILO_CR0), 0x06u);
 291              		.loc 1 235 0
 292 0076 44F20033 		movw	r3, #:lower16:1073758976
 293 007a C4F20003 		movt	r3, #:upper16:1073758976
 294 007e 4FF00602 		mov	r2, #6
 295 0082 1A70     		strb	r2, [r3, #0]
 236:.\Generated_Source\PSoC5/cyfitter_cfg.c **** 
 237:.\Generated_Source\PSoC5/cyfitter_cfg.c **** 	/* Configure IMO based on settings from Clock DWR */
 238:.\Generated_Source\PSoC5/cyfitter_cfg.c **** 	CY_SET_XTND_REG8((void CYFAR *)(CYREG_FASTCLK_IMO_CR), 0x52u);
 296              		.loc 1 238 0
 297 0084 44F20023 		movw	r3, #:lower16:1073758720
 298 0088 C4F20003 		movt	r3, #:upper16:1073758720
 299 008c 4FF05202 		mov	r2, #82
 300 0090 1A70     		strb	r2, [r3, #0]
 239:.\Generated_Source\PSoC5/cyfitter_cfg.c **** 	CY_SET_XTND_REG8((void CYFAR *)(CYREG_IMO_TR1), (CY_GET_XTND_REG8((void CYFAR *)CYREG_FLSHID_CUST_
 301              		.loc 1 239 0
 302 0092 44F2A163 		movw	r3, #:lower16:1073759905
 303 0096 C4F20003 		movt	r3, #:upper16:1073759905
 304 009a 40F20F12 		movw	r2, #:lower16:1224737039
 305 009e C4F60012 		movt	r2, #:upper16:1224737039
 306 00a2 1278     		ldrb	r2, [r2, #0]
 307 00a4 D2B2     		uxtb	r2, r2
 308 00a6 1A70     		strb	r2, [r3, #0]
 240:.\Generated_Source\PSoC5/cyfitter_cfg.c **** 
 241:.\Generated_Source\PSoC5/cyfitter_cfg.c **** 	/* Configure PLL based on settings from Clock DWR */
 242:.\Generated_Source\PSoC5/cyfitter_cfg.c **** 	CY_SET_XTND_REG16((void CYFAR *)(CYREG_FASTCLK_PLL_P), 0x070Fu);
 309              		.loc 1 242 0
 310 00a8 44F22223 		movw	r3, #:lower16:1073758754
 311 00ac C4F20003 		movt	r3, #:upper16:1073758754
 312 00b0 40F20F72 		movw	r2, #1807
 313 00b4 1A80     		strh	r2, [r3, #0]	@ movhi
 243:.\Generated_Source\PSoC5/cyfitter_cfg.c **** 	CY_SET_XTND_REG16((void CYFAR *)(CYREG_FASTCLK_PLL_CFG0), 0x1051u);
 314              		.loc 1 243 0
 315 00b6 44F22023 		movw	r3, #:lower16:1073758752
 316 00ba C4F20003 		movt	r3, #:upper16:1073758752
 317 00be 41F25102 		movw	r2, #4177
 318 00c2 1A80     		strh	r2, [r3, #0]	@ movhi
 244:.\Generated_Source\PSoC5/cyfitter_cfg.c **** 	/* Wait up to 250us for the PLL to lock */
 245:.\Generated_Source\PSoC5/cyfitter_cfg.c **** 	pllLock = 0u;
 319              		.loc 1 245 0
 320 00c4 4FF00003 		mov	r3, #0
 321 00c8 FB71     		strb	r3, [r7, #7]
ARM GAS  C:\DOCUME~1\ADMINI~1\LOCALS~1\Temp\ccQCx9qE.s 			page 11


 246:.\Generated_Source\PSoC5/cyfitter_cfg.c **** 	for (timeout = 250u / 10u; (timeout > 0u) && (pllLock != 0x03u); timeout--) { 
 322              		.loc 1 246 0
 323 00ca 4FF01903 		mov	r3, #25
 324 00ce 3B60     		str	r3, [r7, #0]
 325 00d0 19E0     		b	.L14
 326              	.L16:
 247:.\Generated_Source\PSoC5/cyfitter_cfg.c **** 		pllLock = 0x03u & ((uint8)((uint8)pllLock << 1) | ((CY_GET_XTND_REG8((void CYFAR *)CYREG_FASTCLK_
 327              		.loc 1 247 0
 328 00d2 FB79     		ldrb	r3, [r7, #7]
 329 00d4 4FEA4303 		lsl	r3, r3, #1
 330 00d8 DAB2     		uxtb	r2, r3
 331 00da 44F22523 		movw	r3, #:lower16:1073758757
 332 00de C4F20003 		movt	r3, #:upper16:1073758757
 333 00e2 1B78     		ldrb	r3, [r3, #0]
 334 00e4 DBB2     		uxtb	r3, r3
 335 00e6 03F00103 		and	r3, r3, #1
 336 00ea 42EA0303 		orr	r3, r2, r3
 337 00ee DBB2     		uxtb	r3, r3
 338 00f0 03F00303 		and	r3, r3, #3
 339 00f4 FB71     		strb	r3, [r7, #7]
 248:.\Generated_Source\PSoC5/cyfitter_cfg.c **** 		CyDelayCycles(10u * 48u); /* Delay 10us based on 48MHz clock */
 340              		.loc 1 248 0
 341 00f6 4FF4F070 		mov	r0, #480
 342 00fa FFF7FEFF 		bl	CyDelayCycles
 343              		.loc 1 246 0
 344 00fe 3B68     		ldr	r3, [r7, #0]
 345 0100 03F1FF33 		add	r3, r3, #-1
 346 0104 3B60     		str	r3, [r7, #0]
 347              	.L14:
 348 0106 3B68     		ldr	r3, [r7, #0]
 349 0108 002B     		cmp	r3, #0
 350 010a 02D0     		beq	.L15
 351 010c FB79     		ldrb	r3, [r7, #7]	@ zero_extendqisi2
 352 010e 032B     		cmp	r3, #3
 353 0110 DFD1     		bne	.L16
 354              	.L15:
 249:.\Generated_Source\PSoC5/cyfitter_cfg.c **** 	}
 250:.\Generated_Source\PSoC5/cyfitter_cfg.c **** 
 251:.\Generated_Source\PSoC5/cyfitter_cfg.c **** 	/* Configure Bus/Master Clock based on settings from Clock DWR */
 252:.\Generated_Source\PSoC5/cyfitter_cfg.c **** 	CY_SET_XTND_REG16((void CYFAR *)(CYREG_CLKDIST_MSTR0), 0x0100u);
 355              		.loc 1 252 0
 356 0112 44F20403 		movw	r3, #:lower16:1073758212
 357 0116 C4F20003 		movt	r3, #:upper16:1073758212
 358 011a 4FF48072 		mov	r2, #256
 359 011e 1A80     		strh	r2, [r3, #0]	@ movhi
 253:.\Generated_Source\PSoC5/cyfitter_cfg.c **** 	CY_SET_XTND_REG8((void CYFAR *)(CYREG_CLKDIST_MSTR0), 0x07u);
 360              		.loc 1 253 0
 361 0120 44F20403 		movw	r3, #:lower16:1073758212
 362 0124 C4F20003 		movt	r3, #:upper16:1073758212
 363 0128 4FF00702 		mov	r2, #7
 364 012c 1A70     		strb	r2, [r3, #0]
 254:.\Generated_Source\PSoC5/cyfitter_cfg.c **** 	CY_SET_XTND_REG8((void CYFAR *)(CYREG_CLKDIST_BCFG0), 0x00u);
 365              		.loc 1 254 0
 366 012e 44F20603 		movw	r3, #:lower16:1073758214
 367 0132 C4F20003 		movt	r3, #:upper16:1073758214
 368 0136 4FF00002 		mov	r2, #0
 369 013a 1A70     		strb	r2, [r3, #0]
ARM GAS  C:\DOCUME~1\ADMINI~1\LOCALS~1\Temp\ccQCx9qE.s 			page 12


 255:.\Generated_Source\PSoC5/cyfitter_cfg.c **** 	CY_SET_XTND_REG8((void CYFAR *)(CYREG_CLKDIST_BCFG2), 0x48u);
 370              		.loc 1 255 0
 371 013c 44F20803 		movw	r3, #:lower16:1073758216
 372 0140 C4F20003 		movt	r3, #:upper16:1073758216
 373 0144 4FF04802 		mov	r2, #72
 374 0148 1A70     		strb	r2, [r3, #0]
 256:.\Generated_Source\PSoC5/cyfitter_cfg.c **** 	CY_SET_XTND_REG8((void CYFAR *)(CYREG_CLKDIST_MSTR0), 0x00u);
 375              		.loc 1 256 0
 376 014a 44F20403 		movw	r3, #:lower16:1073758212
 377 014e C4F20003 		movt	r3, #:upper16:1073758212
 378 0152 4FF00002 		mov	r2, #0
 379 0156 1A70     		strb	r2, [r3, #0]
 257:.\Generated_Source\PSoC5/cyfitter_cfg.c **** 
 258:.\Generated_Source\PSoC5/cyfitter_cfg.c **** 	/* Configure USB Clock based on settings from Clock DWR */
 259:.\Generated_Source\PSoC5/cyfitter_cfg.c **** 	CY_SET_XTND_REG8((void CYFAR *)(CYREG_CLKDIST_UCFG), 0x00u);
 380              		.loc 1 259 0
 381 0158 44F20903 		movw	r3, #:lower16:1073758217
 382 015c C4F20003 		movt	r3, #:upper16:1073758217
 383 0160 4FF00002 		mov	r2, #0
 384 0164 1A70     		strb	r2, [r3, #0]
 260:.\Generated_Source\PSoC5/cyfitter_cfg.c **** 	CY_SET_XTND_REG8((void CYFAR *)(CYREG_CLKDIST_LD), 0x02u);
 385              		.loc 1 260 0
 386 0166 44F20103 		movw	r3, #:lower16:1073758209
 387 016a C4F20003 		movt	r3, #:upper16:1073758209
 388 016e 4FF00202 		mov	r2, #2
 389 0172 1A70     		strb	r2, [r3, #0]
 261:.\Generated_Source\PSoC5/cyfitter_cfg.c **** 
 262:.\Generated_Source\PSoC5/cyfitter_cfg.c **** 	CY_SET_XTND_REG8((void CYFAR *)(CYREG_PM_ACT_CFG2), ((CY_GET_XTND_REG8((void CYFAR *)CYREG_PM_ACT_
 390              		.loc 1 262 0
 391 0174 44F2A233 		movw	r3, #:lower16:1073759138
 392 0178 C4F20003 		movt	r3, #:upper16:1073759138
 393 017c 44F2A232 		movw	r2, #:lower16:1073759138
 394 0180 C4F20002 		movt	r2, #:upper16:1073759138
 395 0184 1278     		ldrb	r2, [r2, #0]
 396 0186 D2B2     		uxtb	r2, r2
 397 0188 42F00F02 		orr	r2, r2, #15
 398 018c D2B2     		uxtb	r2, r2
 399 018e 1A70     		strb	r2, [r3, #0]
 263:.\Generated_Source\PSoC5/cyfitter_cfg.c **** }
 400              		.loc 1 263 0
 401 0190 07F10807 		add	r7, r7, #8
 402 0194 BD46     		mov	sp, r7
 403 0196 80BD     		pop	{r7, pc}
 404              		.cfi_endproc
 405              	.LFE4:
 406              		.size	ClockSetup, .-ClockSetup
 407              		.section	.text.AnalogSetDefault,"ax",%progbits
 408              		.align	2
 409              		.thumb
 410              		.thumb_func
 411              		.type	AnalogSetDefault, %function
 412              	AnalogSetDefault:
 413              	.LFB5:
 264:.\Generated_Source\PSoC5/cyfitter_cfg.c **** 
 265:.\Generated_Source\PSoC5/cyfitter_cfg.c **** 
 266:.\Generated_Source\PSoC5/cyfitter_cfg.c **** /* Analog API Functions */
 267:.\Generated_Source\PSoC5/cyfitter_cfg.c **** 
ARM GAS  C:\DOCUME~1\ADMINI~1\LOCALS~1\Temp\ccQCx9qE.s 			page 13


 268:.\Generated_Source\PSoC5/cyfitter_cfg.c **** 
 269:.\Generated_Source\PSoC5/cyfitter_cfg.c **** /*******************************************************************************
 270:.\Generated_Source\PSoC5/cyfitter_cfg.c **** * Function Name: AnalogSetDefault
 271:.\Generated_Source\PSoC5/cyfitter_cfg.c **** ********************************************************************************
 272:.\Generated_Source\PSoC5/cyfitter_cfg.c **** *
 273:.\Generated_Source\PSoC5/cyfitter_cfg.c **** * Summary:
 274:.\Generated_Source\PSoC5/cyfitter_cfg.c **** *  Sets up the analog portions of the chip to default values based on chip
 275:.\Generated_Source\PSoC5/cyfitter_cfg.c **** *  configuration options from the project.
 276:.\Generated_Source\PSoC5/cyfitter_cfg.c **** *
 277:.\Generated_Source\PSoC5/cyfitter_cfg.c **** * Parameters:
 278:.\Generated_Source\PSoC5/cyfitter_cfg.c **** *  void
 279:.\Generated_Source\PSoC5/cyfitter_cfg.c **** *
 280:.\Generated_Source\PSoC5/cyfitter_cfg.c **** * Return:
 281:.\Generated_Source\PSoC5/cyfitter_cfg.c **** *  void
 282:.\Generated_Source\PSoC5/cyfitter_cfg.c **** *
 283:.\Generated_Source\PSoC5/cyfitter_cfg.c **** *******************************************************************************/
 284:.\Generated_Source\PSoC5/cyfitter_cfg.c **** static void AnalogSetDefault(void);
 285:.\Generated_Source\PSoC5/cyfitter_cfg.c **** static void AnalogSetDefault(void)
 286:.\Generated_Source\PSoC5/cyfitter_cfg.c **** {
 414              		.loc 1 286 0
 415              		.cfi_startproc
 416              		@ args = 0, pretend = 0, frame = 8
 417              		@ frame_needed = 1, uses_anonymous_args = 0
 418              		@ link register save eliminated.
 419 0000 80B4     		push	{r7}
 420              	.LCFI15:
 421              		.cfi_def_cfa_offset 4
 422 0002 83B0     		sub	sp, sp, #12
 423              	.LCFI16:
 424              		.cfi_def_cfa_offset 16
 425 0004 00AF     		add	r7, sp, #0
 426              		.cfi_offset 7, -4
 427              	.LCFI17:
 428              		.cfi_def_cfa_register 7
 287:.\Generated_Source\PSoC5/cyfitter_cfg.c **** 	uint8 bg_xover_inl_trim = CY_GET_XTND_REG8((void CYFAR *)(CYREG_FLSHID_MFG_CFG_BG_XOVER_INL_TRIM +
 429              		.loc 1 287 0
 430 0006 40F2CF13 		movw	r3, #:lower16:1224737231
 431 000a C4F60013 		movt	r3, #:upper16:1224737231
 432 000e 1B78     		ldrb	r3, [r3, #0]
 433 0010 FB71     		strb	r3, [r7, #7]
 288:.\Generated_Source\PSoC5/cyfitter_cfg.c **** 	CY_SET_XTND_REG8((void CYFAR *)CYREG_BG_DFT0, bg_xover_inl_trim & 0x07u);
 434              		.loc 1 288 0
 435 0012 45F66E03 		movw	r3, #:lower16:1073764462
 436 0016 C4F20003 		movt	r3, #:upper16:1073764462
 437 001a FA79     		ldrb	r2, [r7, #7]	@ zero_extendqisi2
 438 001c 02F00702 		and	r2, r2, #7
 439 0020 1A70     		strb	r2, [r3, #0]
 289:.\Generated_Source\PSoC5/cyfitter_cfg.c **** 	CY_SET_XTND_REG8((void CYFAR *)CYREG_BG_DFT1, ((uint8)((uint8)bg_xover_inl_trim >> 4)) & 0x0Fu);
 440              		.loc 1 289 0
 441 0022 45F66F03 		movw	r3, #:lower16:1073764463
 442 0026 C4F20003 		movt	r3, #:upper16:1073764463
 443 002a FA79     		ldrb	r2, [r7, #7]	@ zero_extendqisi2
 444 002c 4FEA1212 		lsr	r2, r2, #4
 445 0030 D2B2     		uxtb	r2, r2
 446 0032 1A70     		strb	r2, [r3, #0]
 290:.\Generated_Source\PSoC5/cyfitter_cfg.c **** 	CY_SET_XTND_REG8((void CYFAR *)CYREG_PUMP_CR0, 0x44u);
 447              		.loc 1 290 0
ARM GAS  C:\DOCUME~1\ADMINI~1\LOCALS~1\Temp\ccQCx9qE.s 			page 14


 448 0034 45F67603 		movw	r3, #:lower16:1073764470
 449 0038 C4F20003 		movt	r3, #:upper16:1073764470
 450 003c 4FF04402 		mov	r2, #68
 451 0040 1A70     		strb	r2, [r3, #0]
 291:.\Generated_Source\PSoC5/cyfitter_cfg.c **** }
 452              		.loc 1 291 0
 453 0042 07F10C07 		add	r7, r7, #12
 454 0046 BD46     		mov	sp, r7
 455 0048 80BC     		pop	{r7}
 456 004a 7047     		bx	lr
 457              		.cfi_endproc
 458              	.LFE5:
 459              		.size	AnalogSetDefault, .-AnalogSetDefault
 460              		.section	.text.SetAnalogRoutingPumps,"ax",%progbits
 461              		.align	2
 462              		.global	SetAnalogRoutingPumps
 463              		.thumb
 464              		.thumb_func
 465              		.type	SetAnalogRoutingPumps, %function
 466              	SetAnalogRoutingPumps:
 467              	.LFB6:
 292:.\Generated_Source\PSoC5/cyfitter_cfg.c **** 
 293:.\Generated_Source\PSoC5/cyfitter_cfg.c **** 
 294:.\Generated_Source\PSoC5/cyfitter_cfg.c **** /*******************************************************************************
 295:.\Generated_Source\PSoC5/cyfitter_cfg.c **** * Function Name: SetAnalogRoutingPumps
 296:.\Generated_Source\PSoC5/cyfitter_cfg.c **** ********************************************************************************
 297:.\Generated_Source\PSoC5/cyfitter_cfg.c **** *
 298:.\Generated_Source\PSoC5/cyfitter_cfg.c **** * Summary:
 299:.\Generated_Source\PSoC5/cyfitter_cfg.c **** * Enables or disables the analog pumps feeding analog routing switches.
 300:.\Generated_Source\PSoC5/cyfitter_cfg.c **** * Intended to be called at startup, based on the Vdda system configuration;
 301:.\Generated_Source\PSoC5/cyfitter_cfg.c **** * may be called during operation when the user informs us that the Vdda voltage
 302:.\Generated_Source\PSoC5/cyfitter_cfg.c **** * crossed the pump threshold.
 303:.\Generated_Source\PSoC5/cyfitter_cfg.c **** *
 304:.\Generated_Source\PSoC5/cyfitter_cfg.c **** * Parameters:
 305:.\Generated_Source\PSoC5/cyfitter_cfg.c **** *  enabled - 1 to enable the pumps, 0 to disable the pumps
 306:.\Generated_Source\PSoC5/cyfitter_cfg.c **** *
 307:.\Generated_Source\PSoC5/cyfitter_cfg.c **** * Return:
 308:.\Generated_Source\PSoC5/cyfitter_cfg.c **** *  void
 309:.\Generated_Source\PSoC5/cyfitter_cfg.c **** *
 310:.\Generated_Source\PSoC5/cyfitter_cfg.c **** *******************************************************************************/
 311:.\Generated_Source\PSoC5/cyfitter_cfg.c **** void SetAnalogRoutingPumps(uint8 enabled)
 312:.\Generated_Source\PSoC5/cyfitter_cfg.c **** {
 468              		.loc 1 312 0
 469              		.cfi_startproc
 470              		@ args = 0, pretend = 0, frame = 16
 471              		@ frame_needed = 1, uses_anonymous_args = 0
 472              		@ link register save eliminated.
 473 0000 80B4     		push	{r7}
 474              	.LCFI18:
 475              		.cfi_def_cfa_offset 4
 476 0002 85B0     		sub	sp, sp, #20
 477              	.LCFI19:
 478              		.cfi_def_cfa_offset 24
 479 0004 00AF     		add	r7, sp, #0
 480              		.cfi_offset 7, -4
 481              	.LCFI20:
 482              		.cfi_def_cfa_register 7
ARM GAS  C:\DOCUME~1\ADMINI~1\LOCALS~1\Temp\ccQCx9qE.s 			page 15


 483 0006 0346     		mov	r3, r0
 484 0008 FB71     		strb	r3, [r7, #7]
 313:.\Generated_Source\PSoC5/cyfitter_cfg.c **** 	uint8 regValue = CY_GET_XTND_REG8((void CYFAR *)CYREG_PUMP_CR0);
 485              		.loc 1 313 0
 486 000a 45F67603 		movw	r3, #:lower16:1073764470
 487 000e C4F20003 		movt	r3, #:upper16:1073764470
 488 0012 1B78     		ldrb	r3, [r3, #0]
 489 0014 FB73     		strb	r3, [r7, #15]
 314:.\Generated_Source\PSoC5/cyfitter_cfg.c **** 	if (enabled != 0u)
 490              		.loc 1 314 0
 491 0016 FB79     		ldrb	r3, [r7, #7]	@ zero_extendqisi2
 492 0018 002B     		cmp	r3, #0
 315:.\Generated_Source\PSoC5/cyfitter_cfg.c **** 	{
 316:.\Generated_Source\PSoC5/cyfitter_cfg.c **** 		regValue |= 0x00u;
 317:.\Generated_Source\PSoC5/cyfitter_cfg.c **** 	}
 318:.\Generated_Source\PSoC5/cyfitter_cfg.c **** 	else
 319:.\Generated_Source\PSoC5/cyfitter_cfg.c **** 	{
 320:.\Generated_Source\PSoC5/cyfitter_cfg.c **** 		regValue &= (uint8)~0x00u;
 321:.\Generated_Source\PSoC5/cyfitter_cfg.c **** 	}
 322:.\Generated_Source\PSoC5/cyfitter_cfg.c **** 	CY_SET_XTND_REG8((void CYFAR *)CYREG_PUMP_CR0, regValue);
 493              		.loc 1 322 0
 494 001a 45F67603 		movw	r3, #:lower16:1073764470
 495 001e C4F20003 		movt	r3, #:upper16:1073764470
 496 0022 FA7B     		ldrb	r2, [r7, #15]
 497 0024 1A70     		strb	r2, [r3, #0]
 323:.\Generated_Source\PSoC5/cyfitter_cfg.c **** }
 498              		.loc 1 323 0
 499 0026 07F11407 		add	r7, r7, #20
 500 002a BD46     		mov	sp, r7
 501 002c 80BC     		pop	{r7}
 502 002e 7047     		bx	lr
 503              		.cfi_endproc
 504              	.LFE6:
 505              		.size	SetAnalogRoutingPumps, .-SetAnalogRoutingPumps
 506              		.section	.text.cyfitter_cfg,"ax",%progbits
 507              		.align	2
 508              		.global	cyfitter_cfg
 509              		.thumb
 510              		.thumb_func
 511              		.type	cyfitter_cfg, %function
 512              	cyfitter_cfg:
 513              	.LFB7:
 324:.\Generated_Source\PSoC5/cyfitter_cfg.c **** 
 325:.\Generated_Source\PSoC5/cyfitter_cfg.c **** #define CY_AMUX_UNUSED CYREG_BOOST_SR
 326:.\Generated_Source\PSoC5/cyfitter_cfg.c **** 
 327:.\Generated_Source\PSoC5/cyfitter_cfg.c **** 
 328:.\Generated_Source\PSoC5/cyfitter_cfg.c **** /*******************************************************************************
 329:.\Generated_Source\PSoC5/cyfitter_cfg.c **** * Function Name: cyfitter_cfg
 330:.\Generated_Source\PSoC5/cyfitter_cfg.c **** ********************************************************************************
 331:.\Generated_Source\PSoC5/cyfitter_cfg.c **** * Summary:
 332:.\Generated_Source\PSoC5/cyfitter_cfg.c **** *  This function is called by the start-up code for the selected device. It
 333:.\Generated_Source\PSoC5/cyfitter_cfg.c **** *  performs all of the necessary device configuration based on the design
 334:.\Generated_Source\PSoC5/cyfitter_cfg.c **** *  settings.  This includes settings from the Design Wide Resources (DWR) such
 335:.\Generated_Source\PSoC5/cyfitter_cfg.c **** *  as Clocks and Pins as well as any component configuration that is necessary.
 336:.\Generated_Source\PSoC5/cyfitter_cfg.c **** *
 337:.\Generated_Source\PSoC5/cyfitter_cfg.c **** * Parameters:  
 338:.\Generated_Source\PSoC5/cyfitter_cfg.c **** *   void
ARM GAS  C:\DOCUME~1\ADMINI~1\LOCALS~1\Temp\ccQCx9qE.s 			page 16


 339:.\Generated_Source\PSoC5/cyfitter_cfg.c **** *
 340:.\Generated_Source\PSoC5/cyfitter_cfg.c **** * Return:
 341:.\Generated_Source\PSoC5/cyfitter_cfg.c **** *   void
 342:.\Generated_Source\PSoC5/cyfitter_cfg.c **** *
 343:.\Generated_Source\PSoC5/cyfitter_cfg.c **** *******************************************************************************/
 344:.\Generated_Source\PSoC5/cyfitter_cfg.c **** 
 345:.\Generated_Source\PSoC5/cyfitter_cfg.c **** void cyfitter_cfg(void)
 346:.\Generated_Source\PSoC5/cyfitter_cfg.c **** {
 514              		.loc 1 346 0
 515              		.cfi_startproc
 516              		@ args = 0, pretend = 0, frame = 24
 517              		@ frame_needed = 1, uses_anonymous_args = 0
 518 0000 80B5     		push	{r7, lr}
 519              	.LCFI21:
 520              		.cfi_def_cfa_offset 8
 521 0002 86B0     		sub	sp, sp, #24
 522              	.LCFI22:
 523              		.cfi_def_cfa_offset 32
 524 0004 00AF     		add	r7, sp, #0
 525              		.cfi_offset 14, -4
 526              		.cfi_offset 7, -8
 527              	.LCFI23:
 528              		.cfi_def_cfa_register 7
 347:.\Generated_Source\PSoC5/cyfitter_cfg.c **** #ifdef CYGlobalIntDisable
 348:.\Generated_Source\PSoC5/cyfitter_cfg.c **** 	/* Disable interrupts by default. Let user enable if/when they want. */
 349:.\Generated_Source\PSoC5/cyfitter_cfg.c **** 	CYGlobalIntDisable
 529              		.loc 1 349 0
 530              	@ 349 ".\Generated_Source\PSoC5\cyfitter_cfg.c" 1
 531 0006 72B6     		CPSID   i
 532              	@ 0 "" 2
 533              		.thumb
 534              	.LBB3:
 350:.\Generated_Source\PSoC5/cyfitter_cfg.c **** #endif
 351:.\Generated_Source\PSoC5/cyfitter_cfg.c **** 
 352:.\Generated_Source\PSoC5/cyfitter_cfg.c **** 	{
 353:.\Generated_Source\PSoC5/cyfitter_cfg.c **** 
 354:.\Generated_Source\PSoC5/cyfitter_cfg.c **** 		typedef struct {
 355:.\Generated_Source\PSoC5/cyfitter_cfg.c **** 			void CYFAR *address;
 356:.\Generated_Source\PSoC5/cyfitter_cfg.c **** 			uint16 size;
 357:.\Generated_Source\PSoC5/cyfitter_cfg.c **** 		} CYPACKED cfg_memset_t;
 358:.\Generated_Source\PSoC5/cyfitter_cfg.c **** 
 359:.\Generated_Source\PSoC5/cyfitter_cfg.c **** 
 360:.\Generated_Source\PSoC5/cyfitter_cfg.c **** 		typedef struct {
 361:.\Generated_Source\PSoC5/cyfitter_cfg.c **** 			void CYFAR *dest;
 362:.\Generated_Source\PSoC5/cyfitter_cfg.c **** 			const void CYFAR *src;
 363:.\Generated_Source\PSoC5/cyfitter_cfg.c **** 			uint16 size;
 364:.\Generated_Source\PSoC5/cyfitter_cfg.c **** 		} CYPACKED cfg_memcpy_t;
 365:.\Generated_Source\PSoC5/cyfitter_cfg.c **** 
 366:.\Generated_Source\PSoC5/cyfitter_cfg.c **** 		static const cfg_memset_t CYCODE cfg_memset_list [] = {
 367:.\Generated_Source\PSoC5/cyfitter_cfg.c **** 			/* address, size */
 368:.\Generated_Source\PSoC5/cyfitter_cfg.c **** 			{(void CYFAR *)(CYREG_I2C_XCFG), 25u},
 369:.\Generated_Source\PSoC5/cyfitter_cfg.c **** 			{(void CYFAR *)(CYREG_PRT4_DR), 48u},
 370:.\Generated_Source\PSoC5/cyfitter_cfg.c **** 			{(void CYFAR *)(CYDEV_UCFG_B0_P0_U0_BASE), 4096u},
 371:.\Generated_Source\PSoC5/cyfitter_cfg.c **** 			{(void CYFAR *)(CYDEV_UCFG_B1_P2_U0_BASE), 2048u},
 372:.\Generated_Source\PSoC5/cyfitter_cfg.c **** 			{(void CYFAR *)(CYDEV_UCFG_DSI0_BASE), 2560u},
 373:.\Generated_Source\PSoC5/cyfitter_cfg.c **** 			{(void CYFAR *)(CYDEV_UCFG_DSI12_BASE), 512u},
 374:.\Generated_Source\PSoC5/cyfitter_cfg.c **** 			{(void CYFAR *)(CYREG_BCTL1_MDCLK_EN), 16u},
ARM GAS  C:\DOCUME~1\ADMINI~1\LOCALS~1\Temp\ccQCx9qE.s 			page 17


 375:.\Generated_Source\PSoC5/cyfitter_cfg.c **** 		};
 376:.\Generated_Source\PSoC5/cyfitter_cfg.c **** 
 377:.\Generated_Source\PSoC5/cyfitter_cfg.c **** 		static const cfg_memcpy_t CYCODE cfg_memcpy_list [] = {
 378:.\Generated_Source\PSoC5/cyfitter_cfg.c **** 			/* dest, src, size */
 379:.\Generated_Source\PSoC5/cyfitter_cfg.c **** 			{(void CYFAR *)(CYREG_IDMUX_DRQ_CTL0), BS_IDMUX_VAL, 6u},
 380:.\Generated_Source\PSoC5/cyfitter_cfg.c **** 			{(void CYFAR *)(CYREG_IDMUX_IRQ_CTL0), BS_IDMUX_IRQ_VAL, 8u},
 381:.\Generated_Source\PSoC5/cyfitter_cfg.c **** 			{(void CYFAR *)(CYREG_BCTL0_MDCLK_EN), BS_UCFG_BCTL0_VAL, 16u},
 382:.\Generated_Source\PSoC5/cyfitter_cfg.c **** 		};
 383:.\Generated_Source\PSoC5/cyfitter_cfg.c **** 
 384:.\Generated_Source\PSoC5/cyfitter_cfg.c **** 		uint8 CYDATA i;
 385:.\Generated_Source\PSoC5/cyfitter_cfg.c **** 
 386:.\Generated_Source\PSoC5/cyfitter_cfg.c **** 		/* Zero out critical memory blocks before beginning configuration */
 387:.\Generated_Source\PSoC5/cyfitter_cfg.c **** 		for (i = 0u; i < (sizeof(cfg_memset_list)/sizeof(cfg_memset_list[0])); i++)
 535              		.loc 1 387 0
 536 0008 4FF00003 		mov	r3, #0
 537 000c FB70     		strb	r3, [r7, #3]
 538 000e 2FE0     		b	.L25
 539              	.L26:
 540              	.LBB4:
 388:.\Generated_Source\PSoC5/cyfitter_cfg.c **** 		{
 389:.\Generated_Source\PSoC5/cyfitter_cfg.c **** 			const cfg_memset_t CYCODE * CYDATA ms = &cfg_memset_list[i];
 541              		.loc 1 389 0
 542 0010 FA78     		ldrb	r2, [r7, #3]	@ zero_extendqisi2
 543 0012 1346     		mov	r3, r2
 544 0014 4FEA4303 		lsl	r3, r3, #1
 545 0018 1344     		add	r3, r3, r2
 546 001a 4FEA4303 		lsl	r3, r3, #1
 547 001e 1A46     		mov	r2, r3
 548 0020 40F20003 		movw	r3, #:lower16:cfg_memset_list.2077
 549 0024 C0F20003 		movt	r3, #:upper16:cfg_memset_list.2077
 550 0028 1344     		add	r3, r2, r3
 551 002a 7B60     		str	r3, [r7, #4]
 390:.\Generated_Source\PSoC5/cyfitter_cfg.c **** 			CYMEMZERO(ms->address, (uint32)(ms->size));
 552              		.loc 1 390 0
 553 002c 7B68     		ldr	r3, [r7, #4]
 554 002e 1A78     		ldrb	r2, [r3, #0]	@ zero_extendqisi2
 555 0030 5978     		ldrb	r1, [r3, #1]	@ zero_extendqisi2
 556 0032 4FEA0121 		lsl	r1, r1, #8
 557 0036 41EA0202 		orr	r2, r1, r2
 558 003a 9978     		ldrb	r1, [r3, #2]	@ zero_extendqisi2
 559 003c 4FEA0141 		lsl	r1, r1, #16
 560 0040 41EA0202 		orr	r2, r1, r2
 561 0044 DB78     		ldrb	r3, [r3, #3]	@ zero_extendqisi2
 562 0046 4FEA0363 		lsl	r3, r3, #24
 563 004a 43EA0203 		orr	r3, r3, r2
 564 004e 1A46     		mov	r2, r3
 565 0050 7B68     		ldr	r3, [r7, #4]
 566 0052 1979     		ldrb	r1, [r3, #4]	@ zero_extendqisi2
 567 0054 5B79     		ldrb	r3, [r3, #5]	@ zero_extendqisi2
 568 0056 4FEA0323 		lsl	r3, r3, #8
 569 005a 43EA0103 		orr	r3, r3, r1
 570 005e 9BB2     		uxth	r3, r3
 571 0060 1046     		mov	r0, r2
 572 0062 1946     		mov	r1, r3
 573 0064 FFF7FEFF 		bl	CYMEMZERO
 574              	.LBE4:
 575              		.loc 1 387 0
ARM GAS  C:\DOCUME~1\ADMINI~1\LOCALS~1\Temp\ccQCx9qE.s 			page 18


 576 0068 FB78     		ldrb	r3, [r7, #3]
 577 006a 03F10103 		add	r3, r3, #1
 578 006e FB70     		strb	r3, [r7, #3]
 579              	.L25:
 580 0070 FB78     		ldrb	r3, [r7, #3]	@ zero_extendqisi2
 581 0072 062B     		cmp	r3, #6
 582 0074 CCD9     		bls	.L26
 391:.\Generated_Source\PSoC5/cyfitter_cfg.c **** 		}
 392:.\Generated_Source\PSoC5/cyfitter_cfg.c **** 
 393:.\Generated_Source\PSoC5/cyfitter_cfg.c **** 		/* Copy device configuration data into registers */
 394:.\Generated_Source\PSoC5/cyfitter_cfg.c **** 		for (i = 0u; i < (sizeof(cfg_memcpy_list)/sizeof(cfg_memcpy_list[0])); i++)
 583              		.loc 1 394 0
 584 0076 4FF00003 		mov	r3, #0
 585 007a FB70     		strb	r3, [r7, #3]
 586 007c 43E0     		b	.L27
 587              	.L28:
 588              	.LBB5:
 395:.\Generated_Source\PSoC5/cyfitter_cfg.c **** 		{
 396:.\Generated_Source\PSoC5/cyfitter_cfg.c **** 			const cfg_memcpy_t CYCODE * CYDATA mc = &cfg_memcpy_list[i];
 589              		.loc 1 396 0
 590 007e FA78     		ldrb	r2, [r7, #3]	@ zero_extendqisi2
 591 0080 1346     		mov	r3, r2
 592 0082 4FEA8303 		lsl	r3, r3, #2
 593 0086 1344     		add	r3, r3, r2
 594 0088 4FEA4303 		lsl	r3, r3, #1
 595 008c 1A46     		mov	r2, r3
 596 008e 40F20003 		movw	r3, #:lower16:cfg_memcpy_list.2078
 597 0092 C0F20003 		movt	r3, #:upper16:cfg_memcpy_list.2078
 598 0096 1344     		add	r3, r2, r3
 599 0098 BB60     		str	r3, [r7, #8]
 397:.\Generated_Source\PSoC5/cyfitter_cfg.c **** 			void * CYDATA destPtr = mc->dest;
 600              		.loc 1 397 0
 601 009a BB68     		ldr	r3, [r7, #8]
 602 009c 1A78     		ldrb	r2, [r3, #0]	@ zero_extendqisi2
 603 009e 5978     		ldrb	r1, [r3, #1]	@ zero_extendqisi2
 604 00a0 4FEA0121 		lsl	r1, r1, #8
 605 00a4 41EA0202 		orr	r2, r1, r2
 606 00a8 9978     		ldrb	r1, [r3, #2]	@ zero_extendqisi2
 607 00aa 4FEA0141 		lsl	r1, r1, #16
 608 00ae 41EA0202 		orr	r2, r1, r2
 609 00b2 DB78     		ldrb	r3, [r3, #3]	@ zero_extendqisi2
 610 00b4 4FEA0363 		lsl	r3, r3, #24
 611 00b8 43EA0203 		orr	r3, r3, r2
 612 00bc FB60     		str	r3, [r7, #12]
 398:.\Generated_Source\PSoC5/cyfitter_cfg.c **** 			const void * CYDATA srcPtr = mc->src;
 613              		.loc 1 398 0
 614 00be BB68     		ldr	r3, [r7, #8]
 615 00c0 1A79     		ldrb	r2, [r3, #4]	@ zero_extendqisi2
 616 00c2 5979     		ldrb	r1, [r3, #5]	@ zero_extendqisi2
 617 00c4 4FEA0121 		lsl	r1, r1, #8
 618 00c8 41EA0202 		orr	r2, r1, r2
 619 00cc 9979     		ldrb	r1, [r3, #6]	@ zero_extendqisi2
 620 00ce 4FEA0141 		lsl	r1, r1, #16
 621 00d2 41EA0202 		orr	r2, r1, r2
 622 00d6 DB79     		ldrb	r3, [r3, #7]	@ zero_extendqisi2
 623 00d8 4FEA0363 		lsl	r3, r3, #24
 624 00dc 43EA0203 		orr	r3, r3, r2
ARM GAS  C:\DOCUME~1\ADMINI~1\LOCALS~1\Temp\ccQCx9qE.s 			page 19


 625 00e0 3B61     		str	r3, [r7, #16]
 399:.\Generated_Source\PSoC5/cyfitter_cfg.c **** 			uint16 CYDATA numBytes = mc->size;
 626              		.loc 1 399 0
 627 00e2 BB68     		ldr	r3, [r7, #8]
 628 00e4 1A7A     		ldrb	r2, [r3, #8]	@ zero_extendqisi2
 629 00e6 5B7A     		ldrb	r3, [r3, #9]	@ zero_extendqisi2
 630 00e8 4FEA0323 		lsl	r3, r3, #8
 631 00ec 43EA0203 		orr	r3, r3, r2
 632 00f0 FB82     		strh	r3, [r7, #22]	@ movhi
 400:.\Generated_Source\PSoC5/cyfitter_cfg.c **** 			CYCONFIGCPY(destPtr, srcPtr, numBytes);
 633              		.loc 1 400 0
 634 00f2 FB8A     		ldrh	r3, [r7, #22]
 635 00f4 F868     		ldr	r0, [r7, #12]
 636 00f6 3969     		ldr	r1, [r7, #16]
 637 00f8 1A46     		mov	r2, r3
 638 00fa FFF7FEFF 		bl	CYCONFIGCPY
 639              	.LBE5:
 640              		.loc 1 394 0
 641 00fe FB78     		ldrb	r3, [r7, #3]
 642 0100 03F10103 		add	r3, r3, #1
 643 0104 FB70     		strb	r3, [r7, #3]
 644              	.L27:
 645 0106 FB78     		ldrb	r3, [r7, #3]	@ zero_extendqisi2
 646 0108 022B     		cmp	r3, #2
 647 010a B8D9     		bls	.L28
 401:.\Generated_Source\PSoC5/cyfitter_cfg.c **** 		}
 402:.\Generated_Source\PSoC5/cyfitter_cfg.c **** 
 403:.\Generated_Source\PSoC5/cyfitter_cfg.c **** 		cfg_write_bytes32(cy_cfg_addr_table, cy_cfg_data_table);
 648              		.loc 1 403 0
 649 010c 4FF09040 		mov	r0, #1207959552
 650 0110 40F29801 		movw	r1, #:lower16:1207959704
 651 0114 C4F60001 		movt	r1, #:upper16:1207959704
 652 0118 FFF7FEFF 		bl	cfg_write_bytes32
 404:.\Generated_Source\PSoC5/cyfitter_cfg.c **** 
 405:.\Generated_Source\PSoC5/cyfitter_cfg.c **** 		/* Perform normal device configuration. Order is not critical for these items. */
 406:.\Generated_Source\PSoC5/cyfitter_cfg.c **** 		CYMEMZERO((void CYFAR *)(CYREG_PHUB_CFGMEM0_CFG0), 4u);
 653              		.loc 1 406 0
 654 011c 47F20060 		movw	r0, #:lower16:1073772032
 655 0120 C4F20000 		movt	r0, #:upper16:1073772032
 656 0124 4FF00401 		mov	r1, #4
 657 0128 FFF7FEFF 		bl	CYMEMZERO
 407:.\Generated_Source\PSoC5/cyfitter_cfg.c **** 		CYMEMZERO((void CYFAR *)(CYREG_PHUB_CFGMEM10_CFG0), 4u);
 658              		.loc 1 407 0
 659 012c 47F25060 		movw	r0, #:lower16:1073772112
 660 0130 C4F20000 		movt	r0, #:upper16:1073772112
 661 0134 4FF00401 		mov	r1, #4
 662 0138 FFF7FEFF 		bl	CYMEMZERO
 408:.\Generated_Source\PSoC5/cyfitter_cfg.c **** 		CYCONFIGCPY((void CYFAR *)(CYREG_PHUB_CFGMEM11_CFG0), (const void CYFAR *)(BS_PHUB_CFGMEM11_VAL),
 663              		.loc 1 408 0
 664 013c 47F25860 		movw	r0, #:lower16:1073772120
 665 0140 C4F20000 		movt	r0, #:upper16:1073772120
 666 0144 41F23431 		movw	r1, #:lower16:1207964468
 667 0148 C4F60001 		movt	r1, #:upper16:1207964468
 668 014c 4FF00402 		mov	r2, #4
 669 0150 FFF7FEFF 		bl	CYCONFIGCPY
 409:.\Generated_Source\PSoC5/cyfitter_cfg.c **** 		CYCONFIGCPY((void CYFAR *)(CYREG_PHUB_CFGMEM12_CFG0), (const void CYFAR *)(BS_PHUB_CFGMEM12_VAL),
 670              		.loc 1 409 0
ARM GAS  C:\DOCUME~1\ADMINI~1\LOCALS~1\Temp\ccQCx9qE.s 			page 20


 671 0154 47F26060 		movw	r0, #:lower16:1073772128
 672 0158 C4F20000 		movt	r0, #:upper16:1073772128
 673 015c 41F23831 		movw	r1, #:lower16:1207964472
 674 0160 C4F60001 		movt	r1, #:upper16:1207964472
 675 0164 4FF00402 		mov	r2, #4
 676 0168 FFF7FEFF 		bl	CYCONFIGCPY
 410:.\Generated_Source\PSoC5/cyfitter_cfg.c **** 		CYCONFIGCPY((void CYFAR *)(CYREG_PHUB_CFGMEM13_CFG0), (const void CYFAR *)(BS_PHUB_CFGMEM13_VAL),
 677              		.loc 1 410 0
 678 016c 47F26860 		movw	r0, #:lower16:1073772136
 679 0170 C4F20000 		movt	r0, #:upper16:1073772136
 680 0174 41F23C31 		movw	r1, #:lower16:1207964476
 681 0178 C4F60001 		movt	r1, #:upper16:1207964476
 682 017c 4FF00402 		mov	r2, #4
 683 0180 FFF7FEFF 		bl	CYCONFIGCPY
 411:.\Generated_Source\PSoC5/cyfitter_cfg.c **** 		CYCONFIGCPY((void CYFAR *)(CYREG_PHUB_CFGMEM14_CFG0), (const void CYFAR *)(BS_PHUB_CFGMEM14_VAL),
 684              		.loc 1 411 0
 685 0184 47F27060 		movw	r0, #:lower16:1073772144
 686 0188 C4F20000 		movt	r0, #:upper16:1073772144
 687 018c 41F24031 		movw	r1, #:lower16:1207964480
 688 0190 C4F60001 		movt	r1, #:upper16:1207964480
 689 0194 4FF00402 		mov	r2, #4
 690 0198 FFF7FEFF 		bl	CYCONFIGCPY
 412:.\Generated_Source\PSoC5/cyfitter_cfg.c **** 		CYMEMZERO((void CYFAR *)(CYREG_PHUB_CFGMEM1_CFG0), 4u);
 691              		.loc 1 412 0
 692 019c 47F20860 		movw	r0, #:lower16:1073772040
 693 01a0 C4F20000 		movt	r0, #:upper16:1073772040
 694 01a4 4FF00401 		mov	r1, #4
 695 01a8 FFF7FEFF 		bl	CYMEMZERO
 413:.\Generated_Source\PSoC5/cyfitter_cfg.c **** 		CYCONFIGCPY((void CYFAR *)(CYREG_PHUB_CFGMEM2_CFG0), (const void CYFAR *)(BS_PHUB_CFGMEM2_VAL), 4
 696              		.loc 1 413 0
 697 01ac 47F21060 		movw	r0, #:lower16:1073772048
 698 01b0 C4F20000 		movt	r0, #:upper16:1073772048
 699 01b4 41F24431 		movw	r1, #:lower16:1207964484
 700 01b8 C4F60001 		movt	r1, #:upper16:1207964484
 701 01bc 4FF00402 		mov	r2, #4
 702 01c0 FFF7FEFF 		bl	CYCONFIGCPY
 414:.\Generated_Source\PSoC5/cyfitter_cfg.c **** 		CYMEMZERO((void CYFAR *)(CYREG_PHUB_CFGMEM3_CFG0), 4u);
 703              		.loc 1 414 0
 704 01c4 47F21860 		movw	r0, #:lower16:1073772056
 705 01c8 C4F20000 		movt	r0, #:upper16:1073772056
 706 01cc 4FF00401 		mov	r1, #4
 707 01d0 FFF7FEFF 		bl	CYMEMZERO
 415:.\Generated_Source\PSoC5/cyfitter_cfg.c **** 		CYCONFIGCPY((void CYFAR *)(CYREG_PHUB_CFGMEM4_CFG0), (const void CYFAR *)(BS_PHUB_CFGMEM4_VAL), 4
 708              		.loc 1 415 0
 709 01d4 47F22060 		movw	r0, #:lower16:1073772064
 710 01d8 C4F20000 		movt	r0, #:upper16:1073772064
 711 01dc 41F24831 		movw	r1, #:lower16:1207964488
 712 01e0 C4F60001 		movt	r1, #:upper16:1207964488
 713 01e4 4FF00402 		mov	r2, #4
 714 01e8 FFF7FEFF 		bl	CYCONFIGCPY
 416:.\Generated_Source\PSoC5/cyfitter_cfg.c **** 		CYMEMZERO((void CYFAR *)(CYREG_PHUB_CFGMEM5_CFG0), 4u);
 715              		.loc 1 416 0
 716 01ec 47F22860 		movw	r0, #:lower16:1073772072
 717 01f0 C4F20000 		movt	r0, #:upper16:1073772072
 718 01f4 4FF00401 		mov	r1, #4
 719 01f8 FFF7FEFF 		bl	CYMEMZERO
 417:.\Generated_Source\PSoC5/cyfitter_cfg.c **** 		CYMEMZERO((void CYFAR *)(CYREG_PHUB_CFGMEM6_CFG0), 4u);
ARM GAS  C:\DOCUME~1\ADMINI~1\LOCALS~1\Temp\ccQCx9qE.s 			page 21


 720              		.loc 1 417 0
 721 01fc 47F23060 		movw	r0, #:lower16:1073772080
 722 0200 C4F20000 		movt	r0, #:upper16:1073772080
 723 0204 4FF00401 		mov	r1, #4
 724 0208 FFF7FEFF 		bl	CYMEMZERO
 418:.\Generated_Source\PSoC5/cyfitter_cfg.c **** 		CYMEMZERO((void CYFAR *)(CYREG_PHUB_CFGMEM7_CFG0), 4u);
 725              		.loc 1 418 0
 726 020c 47F23860 		movw	r0, #:lower16:1073772088
 727 0210 C4F20000 		movt	r0, #:upper16:1073772088
 728 0214 4FF00401 		mov	r1, #4
 729 0218 FFF7FEFF 		bl	CYMEMZERO
 419:.\Generated_Source\PSoC5/cyfitter_cfg.c **** 		CYCONFIGCPY((void CYFAR *)(CYREG_PHUB_CFGMEM8_CFG0), (const void CYFAR *)(BS_PHUB_CFGMEM8_VAL), 4
 730              		.loc 1 419 0
 731 021c 47F24060 		movw	r0, #:lower16:1073772096
 732 0220 C4F20000 		movt	r0, #:upper16:1073772096
 733 0224 41F24C31 		movw	r1, #:lower16:1207964492
 734 0228 C4F60001 		movt	r1, #:upper16:1207964492
 735 022c 4FF00402 		mov	r2, #4
 736 0230 FFF7FEFF 		bl	CYCONFIGCPY
 420:.\Generated_Source\PSoC5/cyfitter_cfg.c **** 		CYMEMZERO((void CYFAR *)(CYREG_PHUB_CFGMEM9_CFG0), 4u);
 737              		.loc 1 420 0
 738 0234 47F24860 		movw	r0, #:lower16:1073772104
 739 0238 C4F20000 		movt	r0, #:upper16:1073772104
 740 023c 4FF00401 		mov	r1, #4
 741 0240 FFF7FEFF 		bl	CYMEMZERO
 421:.\Generated_Source\PSoC5/cyfitter_cfg.c **** 
 422:.\Generated_Source\PSoC5/cyfitter_cfg.c **** 		/* Enable digital routing */
 423:.\Generated_Source\PSoC5/cyfitter_cfg.c **** 		CY_SET_XTND_REG8((void CYFAR *)CYREG_BCTL0_BANK_CTL, CY_GET_XTND_REG8((void CYFAR *)CYREG_BCTL0_B
 742              		.loc 1 423 0
 743 0244 45F20303 		movw	r3, #:lower16:1073827843
 744 0248 C4F20103 		movt	r3, #:upper16:1073827843
 745 024c 45F20302 		movw	r2, #:lower16:1073827843
 746 0250 C4F20102 		movt	r2, #:upper16:1073827843
 747 0254 1278     		ldrb	r2, [r2, #0]
 748 0256 D2B2     		uxtb	r2, r2
 749 0258 42F00202 		orr	r2, r2, #2
 750 025c D2B2     		uxtb	r2, r2
 751 025e 1A70     		strb	r2, [r3, #0]
 424:.\Generated_Source\PSoC5/cyfitter_cfg.c **** 		CY_SET_XTND_REG8((void CYFAR *)CYREG_BCTL1_BANK_CTL, CY_GET_XTND_REG8((void CYFAR *)CYREG_BCTL1_B
 752              		.loc 1 424 0
 753 0260 45F21303 		movw	r3, #:lower16:1073827859
 754 0264 C4F20103 		movt	r3, #:upper16:1073827859
 755 0268 45F21302 		movw	r2, #:lower16:1073827859
 756 026c C4F20102 		movt	r2, #:upper16:1073827859
 757 0270 1278     		ldrb	r2, [r2, #0]
 758 0272 D2B2     		uxtb	r2, r2
 759 0274 42F00202 		orr	r2, r2, #2
 760 0278 D2B2     		uxtb	r2, r2
 761 027a 1A70     		strb	r2, [r3, #0]
 425:.\Generated_Source\PSoC5/cyfitter_cfg.c **** 
 426:.\Generated_Source\PSoC5/cyfitter_cfg.c **** 		/* Enable UDB array */
 427:.\Generated_Source\PSoC5/cyfitter_cfg.c **** 		CY_SET_XTND_REG8((void CYFAR *)CYREG_PM_ACT_CFG0, CY_GET_XTND_REG8((void CYFAR *)CYREG_PM_ACT_CFG
 762              		.loc 1 427 0
 763 027c 44F2A033 		movw	r3, #:lower16:1073759136
 764 0280 C4F20003 		movt	r3, #:upper16:1073759136
 765 0284 44F2A032 		movw	r2, #:lower16:1073759136
 766 0288 C4F20002 		movt	r2, #:upper16:1073759136
ARM GAS  C:\DOCUME~1\ADMINI~1\LOCALS~1\Temp\ccQCx9qE.s 			page 22


 767 028c 1278     		ldrb	r2, [r2, #0]
 768 028e D2B2     		uxtb	r2, r2
 769 0290 42F04002 		orr	r2, r2, #64
 770 0294 D2B2     		uxtb	r2, r2
 771 0296 1A70     		strb	r2, [r3, #0]
 428:.\Generated_Source\PSoC5/cyfitter_cfg.c **** 		CY_SET_XTND_REG8((void CYFAR *)CYREG_PM_AVAIL_CR2, CY_GET_XTND_REG8((void CYFAR *)CYREG_PM_AVAIL_
 772              		.loc 1 428 0
 773 0298 44F2C233 		movw	r3, #:lower16:1073759170
 774 029c C4F20003 		movt	r3, #:upper16:1073759170
 775 02a0 44F2C232 		movw	r2, #:lower16:1073759170
 776 02a4 C4F20002 		movt	r2, #:upper16:1073759170
 777 02a8 1278     		ldrb	r2, [r2, #0]
 778 02aa D2B2     		uxtb	r2, r2
 779 02ac 42F01002 		orr	r2, r2, #16
 780 02b0 D2B2     		uxtb	r2, r2
 781 02b2 1A70     		strb	r2, [r3, #0]
 782              	.LBE3:
 429:.\Generated_Source\PSoC5/cyfitter_cfg.c **** 	}
 430:.\Generated_Source\PSoC5/cyfitter_cfg.c **** 
 431:.\Generated_Source\PSoC5/cyfitter_cfg.c **** 	/* Perform second pass device configuration. These items must be configured in specific order afte
 432:.\Generated_Source\PSoC5/cyfitter_cfg.c **** 	CYCONFIGCPY((void CYFAR *)(CYREG_PRT0_DM0), (const void CYFAR *)(BS_IOPINS0_0_VAL), 8u);
 783              		.loc 1 432 0
 784 02b4 45F20210 		movw	r0, #:lower16:1073762562
 785 02b8 C4F20000 		movt	r0, #:upper16:1073762562
 786 02bc 41F2F421 		movw	r1, #:lower16:1207964404
 787 02c0 C4F60001 		movt	r1, #:upper16:1207964404
 788 02c4 4FF00802 		mov	r2, #8
 789 02c8 FFF7FEFF 		bl	CYCONFIGCPY
 433:.\Generated_Source\PSoC5/cyfitter_cfg.c **** 	CYCONFIGCPY((void CYFAR *)(CYREG_PRT12_DM0), (const void CYFAR *)(BS_IOPINS0_7_VAL), 8u);
 790              		.loc 1 433 0
 791 02cc 45F2C210 		movw	r0, #:lower16:1073762754
 792 02d0 C4F20000 		movt	r0, #:upper16:1073762754
 793 02d4 41F2FC21 		movw	r1, #:lower16:1207964412
 794 02d8 C4F60001 		movt	r1, #:upper16:1207964412
 795 02dc 4FF00802 		mov	r2, #8
 796 02e0 FFF7FEFF 		bl	CYCONFIGCPY
 434:.\Generated_Source\PSoC5/cyfitter_cfg.c **** 	CYCONFIGCPY((void CYFAR *)(CYREG_PRT15_DR), (const void CYFAR *)(BS_IOPINS0_8_VAL), 10u);
 797              		.loc 1 434 0
 798 02e4 45F2F010 		movw	r0, #:lower16:1073762800
 799 02e8 C4F20000 		movt	r0, #:upper16:1073762800
 800 02ec 41F20431 		movw	r1, #:lower16:1207964420
 801 02f0 C4F60001 		movt	r1, #:upper16:1207964420
 802 02f4 4FF00A02 		mov	r2, #10
 803 02f8 FFF7FEFF 		bl	CYCONFIGCPY
 435:.\Generated_Source\PSoC5/cyfitter_cfg.c **** 	CYCONFIGCPY((void CYFAR *)(CYREG_PRT1_DR), (const void CYFAR *)(BS_IOPINS0_1_VAL), 10u);
 804              		.loc 1 435 0
 805 02fc 45F21010 		movw	r0, #:lower16:1073762576
 806 0300 C4F20000 		movt	r0, #:upper16:1073762576
 807 0304 41F21031 		movw	r1, #:lower16:1207964432
 808 0308 C4F60001 		movt	r1, #:upper16:1207964432
 809 030c 4FF00A02 		mov	r2, #10
 810 0310 FFF7FEFF 		bl	CYCONFIGCPY
 436:.\Generated_Source\PSoC5/cyfitter_cfg.c **** 	CYCONFIGCPY((void CYFAR *)(CYREG_PRT2_DR), (const void CYFAR *)(BS_IOPINS0_2_VAL), 10u);
 811              		.loc 1 436 0
 812 0314 45F22010 		movw	r0, #:lower16:1073762592
 813 0318 C4F20000 		movt	r0, #:upper16:1073762592
 814 031c 41F21C31 		movw	r1, #:lower16:1207964444
ARM GAS  C:\DOCUME~1\ADMINI~1\LOCALS~1\Temp\ccQCx9qE.s 			page 23


 815 0320 C4F60001 		movt	r1, #:upper16:1207964444
 816 0324 4FF00A02 		mov	r2, #10
 817 0328 FFF7FEFF 		bl	CYCONFIGCPY
 437:.\Generated_Source\PSoC5/cyfitter_cfg.c **** 	CYCONFIGCPY((void CYFAR *)(CYREG_PRT3_DR), (const void CYFAR *)(BS_IOPINS0_3_VAL), 10u);
 818              		.loc 1 437 0
 819 032c 45F23010 		movw	r0, #:lower16:1073762608
 820 0330 C4F20000 		movt	r0, #:upper16:1073762608
 821 0334 41F22831 		movw	r1, #:lower16:1207964456
 822 0338 C4F60001 		movt	r1, #:upper16:1207964456
 823 033c 4FF00A02 		mov	r2, #10
 824 0340 FFF7FEFF 		bl	CYCONFIGCPY
 438:.\Generated_Source\PSoC5/cyfitter_cfg.c **** 	CY_SET_XTND_REG8((void CYFAR *)(CYREG_B0_P1_U1_CFG24), 0x84u);
 825              		.loc 1 438 0
 826 0344 40F2D823 		movw	r3, #:lower16:1073808088
 827 0348 C4F20103 		movt	r3, #:upper16:1073808088
 828 034c 6FF07B02 		mvn	r2, #123
 829 0350 1A70     		strb	r2, [r3, #0]
 439:.\Generated_Source\PSoC5/cyfitter_cfg.c **** 	CY_SET_XTND_REG8((void CYFAR *)(CYREG_B0_P2_U0_CFG24), 0x84u);
 830              		.loc 1 439 0
 831 0352 40F25843 		movw	r3, #:lower16:1073808472
 832 0356 C4F20103 		movt	r3, #:upper16:1073808472
 833 035a 6FF07B02 		mvn	r2, #123
 834 035e 1A70     		strb	r2, [r3, #0]
 440:.\Generated_Source\PSoC5/cyfitter_cfg.c **** 	CY_SET_XTND_REG8((void CYFAR *)(CYREG_B0_P2_U0_CFG27), 0x84u);
 835              		.loc 1 440 0
 836 0360 40F25B43 		movw	r3, #:lower16:1073808475
 837 0364 C4F20103 		movt	r3, #:upper16:1073808475
 838 0368 6FF07B02 		mvn	r2, #123
 839 036c 1A70     		strb	r2, [r3, #0]
 441:.\Generated_Source\PSoC5/cyfitter_cfg.c **** 	CY_SET_XTND_REG8((void CYFAR *)(CYREG_B0_P3_U1_CFG24), 0x84u);
 840              		.loc 1 441 0
 841 036e 40F2D863 		movw	r3, #:lower16:1073809112
 842 0372 C4F20103 		movt	r3, #:upper16:1073809112
 843 0376 6FF07B02 		mvn	r2, #123
 844 037a 1A70     		strb	r2, [r3, #0]
 442:.\Generated_Source\PSoC5/cyfitter_cfg.c **** 	CY_SET_XTND_REG8((void CYFAR *)(CYREG_B0_P4_U0_CFG24), 0xC4u);
 845              		.loc 1 442 0
 846 037c 40F65803 		movw	r3, #:lower16:1073809496
 847 0380 C4F20103 		movt	r3, #:upper16:1073809496
 848 0384 6FF03B02 		mvn	r2, #59
 849 0388 1A70     		strb	r2, [r3, #0]
 443:.\Generated_Source\PSoC5/cyfitter_cfg.c **** 	CY_SET_XTND_REG8((void CYFAR *)(CYREG_B0_P5_U1_CFG24), 0xC4u);
 850              		.loc 1 443 0
 851 038a 40F6D823 		movw	r3, #:lower16:1073810136
 852 038e C4F20103 		movt	r3, #:upper16:1073810136
 853 0392 6FF03B02 		mvn	r2, #59
 854 0396 1A70     		strb	r2, [r3, #0]
 444:.\Generated_Source\PSoC5/cyfitter_cfg.c **** 	CY_SET_XTND_REG8((void CYFAR *)(CYREG_B0_P6_U0_CFG24), 0xC0u);
 855              		.loc 1 444 0
 856 0398 40F65843 		movw	r3, #:lower16:1073810520
 857 039c C4F20103 		movt	r3, #:upper16:1073810520
 858 03a0 6FF03F02 		mvn	r2, #63
 859 03a4 1A70     		strb	r2, [r3, #0]
 445:.\Generated_Source\PSoC5/cyfitter_cfg.c **** 	CY_SET_XTND_REG8((void CYFAR *)(CYREG_B0_P7_U1_CFG24), 0xC4u);
 860              		.loc 1 445 0
 861 03a6 40F6D863 		movw	r3, #:lower16:1073811160
 862 03aa C4F20103 		movt	r3, #:upper16:1073811160
ARM GAS  C:\DOCUME~1\ADMINI~1\LOCALS~1\Temp\ccQCx9qE.s 			page 24


 863 03ae 6FF03B02 		mvn	r2, #59
 864 03b2 1A70     		strb	r2, [r3, #0]
 446:.\Generated_Source\PSoC5/cyfitter_cfg.c **** 	CY_SET_XTND_REG8((void CYFAR *)(CYREG_B1_P2_U0_CFG24), 0x84u);
 865              		.loc 1 446 0
 866 03b4 41F25843 		movw	r3, #:lower16:1073812568
 867 03b8 C4F20103 		movt	r3, #:upper16:1073812568
 868 03bc 6FF07B02 		mvn	r2, #123
 869 03c0 1A70     		strb	r2, [r3, #0]
 447:.\Generated_Source\PSoC5/cyfitter_cfg.c **** 	CY_SET_XTND_REG8((void CYFAR *)(CYREG_B1_P4_U0_CFG24), 0xC4u);
 870              		.loc 1 447 0
 871 03c2 41F65803 		movw	r3, #:lower16:1073813592
 872 03c6 C4F20103 		movt	r3, #:upper16:1073813592
 873 03ca 6FF03B02 		mvn	r2, #59
 874 03ce 1A70     		strb	r2, [r3, #0]
 448:.\Generated_Source\PSoC5/cyfitter_cfg.c **** 	CY_SET_XTND_REG8((void CYFAR *)(CYREG_B1_P4_U1_CFG24), 0xC4u);
 875              		.loc 1 448 0
 876 03d0 41F6D803 		movw	r3, #:lower16:1073813720
 877 03d4 C4F20103 		movt	r3, #:upper16:1073813720
 878 03d8 6FF03B02 		mvn	r2, #59
 879 03dc 1A70     		strb	r2, [r3, #0]
 449:.\Generated_Source\PSoC5/cyfitter_cfg.c **** 	CY_SET_XTND_REG8((void CYFAR *)(CYREG_B1_P5_U0_CFG24), 0xC0u);
 880              		.loc 1 449 0
 881 03de 41F65823 		movw	r3, #:lower16:1073814104
 882 03e2 C4F20103 		movt	r3, #:upper16:1073814104
 883 03e6 6FF03F02 		mvn	r2, #63
 884 03ea 1A70     		strb	r2, [r3, #0]
 450:.\Generated_Source\PSoC5/cyfitter_cfg.c **** 	CY_SET_XTND_REG8((void CYFAR *)(CYREG_B1_P5_U1_CFG24), 0xC4u);
 885              		.loc 1 450 0
 886 03ec 41F6D823 		movw	r3, #:lower16:1073814232
 887 03f0 C4F20103 		movt	r3, #:upper16:1073814232
 888 03f4 6FF03B02 		mvn	r2, #59
 889 03f8 1A70     		strb	r2, [r3, #0]
 451:.\Generated_Source\PSoC5/cyfitter_cfg.c **** 
 452:.\Generated_Source\PSoC5/cyfitter_cfg.c **** 	/* Switch Boost to the precision bandgap reference from its internal reference */
 453:.\Generated_Source\PSoC5/cyfitter_cfg.c **** 	CY_SET_REG8((void CYXDATA *)CYDEV_BOOST_CR2, (CY_GET_REG8((void CYXDATA *)CYDEV_BOOST_CR2) | 0x08u
 890              		.loc 1 453 0
 891 03fa 44F22233 		movw	r3, #:lower16:1073759010
 892 03fe C4F20003 		movt	r3, #:upper16:1073759010
 893 0402 44F22232 		movw	r2, #:lower16:1073759010
 894 0406 C4F20002 		movt	r2, #:upper16:1073759010
 895 040a 1278     		ldrb	r2, [r2, #0]
 896 040c D2B2     		uxtb	r2, r2
 897 040e 42F00802 		orr	r2, r2, #8
 898 0412 D2B2     		uxtb	r2, r2
 899 0414 1A70     		strb	r2, [r3, #0]
 454:.\Generated_Source\PSoC5/cyfitter_cfg.c **** 
 455:.\Generated_Source\PSoC5/cyfitter_cfg.c **** 	/* Set Flash Cycles based on max possible frequency in case a glitch occurs during ClockSetup(). *
 456:.\Generated_Source\PSoC5/cyfitter_cfg.c **** 	CY_SET_XTND_REG8((void CYFAR *)(CYREG_CACHE_CC_CTL), (((CYDEV_INSTRUCT_CACHE_ENABLED) != 0) ? 0x01
 900              		.loc 1 456 0
 901 0416 44F60003 		movw	r3, #:lower16:1073760256
 902 041a C4F20003 		movt	r3, #:upper16:1073760256
 903 041e 4FF00102 		mov	r2, #1
 904 0422 1A70     		strb	r2, [r3, #0]
 457:.\Generated_Source\PSoC5/cyfitter_cfg.c **** 	/* Setup clocks based on selections from Clock DWR */
 458:.\Generated_Source\PSoC5/cyfitter_cfg.c **** 	ClockSetup();
 905              		.loc 1 458 0
 906 0424 FFF7FEFF 		bl	ClockSetup
ARM GAS  C:\DOCUME~1\ADMINI~1\LOCALS~1\Temp\ccQCx9qE.s 			page 25


 459:.\Generated_Source\PSoC5/cyfitter_cfg.c **** 	/* Set Flash Cycles based on newly configured 45.00MHz Bus Clock. */
 460:.\Generated_Source\PSoC5/cyfitter_cfg.c **** 	CY_SET_XTND_REG8((void CYFAR *)(CYREG_CACHE_CC_CTL), (((CYDEV_INSTRUCT_CACHE_ENABLED) != 0) ? 0xC1
 907              		.loc 1 460 0
 908 0428 44F60003 		movw	r3, #:lower16:1073760256
 909 042c C4F20003 		movt	r3, #:upper16:1073760256
 910 0430 6FF03E02 		mvn	r2, #62
 911 0434 1A70     		strb	r2, [r3, #0]
 461:.\Generated_Source\PSoC5/cyfitter_cfg.c **** 
 462:.\Generated_Source\PSoC5/cyfitter_cfg.c **** 	/* Perform basic analog initialization to defaults */
 463:.\Generated_Source\PSoC5/cyfitter_cfg.c **** 	AnalogSetDefault();
 912              		.loc 1 463 0
 913 0436 FFF7FEFF 		bl	AnalogSetDefault
 464:.\Generated_Source\PSoC5/cyfitter_cfg.c **** 
 465:.\Generated_Source\PSoC5/cyfitter_cfg.c **** 	/* Configure alternate active mode */
 466:.\Generated_Source\PSoC5/cyfitter_cfg.c **** 	CYCONFIGCPY((void CYFAR *)CYDEV_PM_STBY_BASE, (const void CYFAR *)CYDEV_PM_ACT_BASE, 14u);
 914              		.loc 1 466 0
 915 043a 44F2B030 		movw	r0, #:lower16:1073759152
 916 043e C4F20000 		movt	r0, #:upper16:1073759152
 917 0442 44F2A031 		movw	r1, #:lower16:1073759136
 918 0446 C4F20001 		movt	r1, #:upper16:1073759136
 919 044a 4FF00E02 		mov	r2, #14
 920 044e FFF7FEFF 		bl	CYCONFIGCPY
 467:.\Generated_Source\PSoC5/cyfitter_cfg.c **** }
 921              		.loc 1 467 0
 922 0452 07F11807 		add	r7, r7, #24
 923 0456 BD46     		mov	sp, r7
 924 0458 80BD     		pop	{r7, pc}
 925              		.cfi_endproc
 926              	.LFE7:
 927              		.size	cyfitter_cfg, .-cyfitter_cfg
 928 045a 00BF     		.section	.rodata
 929              		.align	2
 930              		.type	cfg_memset_list.2077, %object
 931              		.size	cfg_memset_list.2077, 42
 932              	cfg_memset_list.2077:
 933 0000 C8490040 		.word	1073760712
 934 0004 1900     		.short	25
 935 0006 40510040 		.4byte	1073762624
 936 000a 3000     		.short	48
 937 000c 00000140 		.word	1073807360
 938 0010 0010     		.short	4096
 939 0012 00140140 		.4byte	1073812480
 940 0016 0008     		.short	2048
 941 0018 00400140 		.word	1073823744
 942 001c 000A     		.short	2560
 943 001e 004C0140 		.4byte	1073826816
 944 0022 0002     		.short	512
 945 0024 10500140 		.word	1073827856
 946 0028 1000     		.short	16
 947 002a 0000     		.align	2
 948              		.type	cfg_memcpy_list.2078, %object
 949              		.size	cfg_memcpy_list.2078, 30
 950              	cfg_memcpy_list.2078:
 951 002c 10510140 		.word	1073828112
 952 0030 D4120048 		.word	1207964372
 953 0034 0600     		.short	6
 954 0036 00510140 		.4byte	1073828096
ARM GAS  C:\DOCUME~1\ADMINI~1\LOCALS~1\Temp\ccQCx9qE.s 			page 26


 955 003a DC120048 		.4byte	1207964380
 956 003e 0800     		.short	8
 957 0040 00500140 		.word	1073827840
 958 0044 E4120048 		.word	1207964388
 959 0048 1000     		.short	16
 960 004a 0000     		.text
 961              	.Letext0: